	.text
	.intel_syntax noprefix
	.globl	_Z12printResultsRK5Sievebdii    # -- Begin function _Z12printResultsRK5Sievebdii
	.p2align	4, 0x90
	.type	_Z12printResultsRK5Sievebdii,@function
_Z12printResultsRK5Sievebdii:           # @_Z12printResultsRK5Sievebdii
	.cfi_startproc
# %bb.0:
	push	rbp
	.cfi_def_cfa_offset 16
	push	r15
	.cfi_def_cfa_offset 24
	push	r14
	.cfi_def_cfa_offset 32
	push	r13
	.cfi_def_cfa_offset 40
	push	r12
	.cfi_def_cfa_offset 48
	push	rbx
	.cfi_def_cfa_offset 56
	sub	rsp, 24
	.cfi_def_cfa_offset 80
	.cfi_offset rbx, -56
	.cfi_offset r12, -48
	.cfi_offset r13, -40
	.cfi_offset r14, -32
	.cfi_offset r15, -24
	.cfi_offset rbp, -16
	mov	r14d, ecx
	mov	r15d, edx
	movsd	qword ptr [rsp + 16], xmm0      # 8-byte Spill
	mov	r13d, esi
	mov	rbx, rdi
	mov	r12, qword ptr [rdi + 62504]
	test	esi, esi
	je	.LBB0_11
# %bb.1:
	lea	rdi, [rip + .L.str]
	xor	eax, eax
	call	printf@PLT
	xor	ebp, ebp
	cmp	r12, 2
	setae	bpl
	jbe	.LBB0_7
# %bb.2:
	mov	dword ptr [rsp + 4], r13d       # 4-byte Spill
	mov	dword ptr [rsp + 8], r15d       # 4-byte Spill
	mov	dword ptr [rsp + 12], r14d      # 4-byte Spill
	mov	r14d, 3
	mov	r13d, 1
	lea	r15, [rip + .L.str.1]
	jmp	.LBB0_3
	.p2align	4, 0x90
.LBB0_5:                                #   in Loop: Header=BB0_3 Depth=1
	add	r14, 2
	inc	r13
	cmp	r12, r14
	jb	.LBB0_6
.LBB0_3:                                # =>This Inner Loop Header: Depth=1
	mov	rax, r14
	shr	rax, 7
	mov	rax, qword ptr [rbx + 8*rax]
	bt	rax, r13
	jb	.LBB0_5
# %bb.4:                                #   in Loop: Header=BB0_3 Depth=1
	mov	rdi, r15
	mov	esi, r14d
	xor	eax, eax
	call	printf@PLT
	inc	ebp
	jmp	.LBB0_5
.LBB0_11:
	xor	ebp, ebp
	cmp	r12, 2
	setae	bpl
	ja	.LBB0_12
# %bb.14:
	sete	al
	movzx	r8d, al
	mov	rax, r12
	jmp	.LBB0_15
.LBB0_12:
	mov	dword ptr [rsp + 4], r13d       # 4-byte Spill
	mov	dword ptr [rsp + 8], r15d       # 4-byte Spill
	mov	dword ptr [rsp + 12], r14d      # 4-byte Spill
	mov	eax, 3
	mov	ecx, 1
	.p2align	4, 0x90
.LBB0_13:                               # =>This Inner Loop Header: Depth=1
	mov	rdx, rax
	shr	rdx, 7
	mov	rdx, qword ptr [rbx + 8*rdx]
	bt	rdx, rcx
	sbb	ebp, -1
	add	rax, 2
	inc	rcx
	cmp	r12, rax
	jae	.LBB0_13
.LBB0_6:
	cmp	byte ptr [rsp + 4], 0           # 1-byte Folded Reload
	mov	r14d, dword ptr [rsp + 12]      # 4-byte Reload
	mov	r15d, dword ptr [rsp + 8]       # 4-byte Reload
	je	.LBB0_8
.LBB0_7:
	mov	edi, 10
	call	putchar@PLT
.LBB0_8:
	mov	rax, qword ptr [rbx + 62504]
	xor	r8d, r8d
	cmp	rax, 2
	setae	r8b
	jbe	.LBB0_15
# %bb.9:
	mov	edx, 3
	mov	ecx, 1
	.p2align	4, 0x90
.LBB0_10:                               # =>This Inner Loop Header: Depth=1
	mov	rsi, rdx
	shr	rsi, 7
	mov	rsi, qword ptr [rbx + 8*rsi]
	not	rsi
	shr	rsi, cl
	and	esi, 1
	add	r8, rsi
	add	rdx, 2
	inc	rcx
	cmp	rdx, rax
	jbe	.LBB0_10
.LBB0_15:
	xor	r9d, r9d
	cmp	rax, 9999
	jle	.LBB0_16
# %bb.21:
	cmp	rax, 999999
	jg	.LBB0_25
# %bb.22:
	cmp	rax, 10000
	je	.LBB0_29
# %bb.23:
	cmp	rax, 100000
	jne	.LBB0_35
# %bb.24:
	lea	rcx, [rip + _ZL17resultsDictionary+64]
	mov	r10d, dword ptr [rcx + 8]
	cmp	r10d, -1
	jne	.LBB0_32
	jmp	.LBB0_35
.LBB0_16:
	cmp	rax, 10
	je	.LBB0_17
# %bb.18:
	cmp	rax, 100
	je	.LBB0_28
# %bb.19:
	cmp	rax, 1000
	jne	.LBB0_35
# %bb.20:
	lea	rcx, [rip + _ZL17resultsDictionary+32]
	mov	r10d, dword ptr [rcx + 8]
	cmp	r10d, -1
	jne	.LBB0_32
	jmp	.LBB0_35
.LBB0_25:
	cmp	rax, 1000000
	je	.LBB0_30
# %bb.26:
	cmp	rax, 10000000
	jne	.LBB0_35
# %bb.27:
	lea	rcx, [rip + _ZL17resultsDictionary+96]
	mov	r10d, dword ptr [rcx + 8]
	cmp	r10d, -1
	jne	.LBB0_32
	jmp	.LBB0_35
.LBB0_29:
	lea	rcx, [rip + _ZL17resultsDictionary+48]
	mov	r10d, dword ptr [rcx + 8]
	cmp	r10d, -1
	jne	.LBB0_32
	jmp	.LBB0_35
.LBB0_17:
	lea	rcx, [rip + _ZL17resultsDictionary]
	mov	r10d, dword ptr [rcx + 8]
	cmp	r10d, -1
	jne	.LBB0_32
	jmp	.LBB0_35
.LBB0_30:
	lea	rcx, [rip + _ZL17resultsDictionary+80]
	mov	r10d, dword ptr [rcx + 8]
	cmp	r10d, -1
	jne	.LBB0_32
	jmp	.LBB0_35
.LBB0_28:
	lea	rcx, [rip + _ZL17resultsDictionary+16]
	mov	r10d, dword ptr [rcx + 8]
	cmp	r10d, -1
	je	.LBB0_35
.LBB0_32:
	mov	edx, 3
	mov	ecx, 1
	mov	edi, 1
	.p2align	4, 0x90
.LBB0_33:                               # =>This Inner Loop Header: Depth=1
	mov	rsi, rdx
	shr	rsi, 7
	mov	rsi, qword ptr [rbx + 8*rsi]
	not	rsi
	shr	rsi, cl
	and	esi, 1
	add	rdi, rsi
	add	rdx, 2
	inc	rcx
	cmp	rdx, rax
	jbe	.LBB0_33
# %bb.34:
	xor	r9d, r9d
	cmp	r10d, edi
	sete	r9b
.LBB0_35:
	cvtsi2sd	xmm2, r15d
	movsd	xmm0, qword ptr [rsp + 16]      # 8-byte Reload
                                        # xmm0 = mem[0],zero
	movapd	xmm1, xmm0
	divsd	xmm1, xmm2
	lea	rdi, [rip + .L.str.3]
	mov	esi, r15d
	mov	rdx, r12
	mov	ecx, ebp
                                        # kill: def $r8d killed $r8d killed $r8
	mov	al, 2
	call	printf@PLT
	mov	edi, 10
	call	putchar@PLT
	lea	rdi, [rip + .L.str.4]
	mov	esi, r15d
	movsd	xmm0, qword ptr [rsp + 16]      # 8-byte Reload
                                        # xmm0 = mem[0],zero
	mov	edx, r14d
	mov	al, 1
	add	rsp, 24
	.cfi_def_cfa_offset 56
	pop	rbx
	.cfi_def_cfa_offset 48
	pop	r12
	.cfi_def_cfa_offset 40
	pop	r13
	.cfi_def_cfa_offset 32
	pop	r14
	.cfi_def_cfa_offset 24
	pop	r15
	.cfi_def_cfa_offset 16
	pop	rbp
	.cfi_def_cfa_offset 8
	jmp	printf@PLT                      # TAILCALL
.Lfunc_end0:
	.size	_Z12printResultsRK5Sievebdii, .Lfunc_end0-_Z12printResultsRK5Sievebdii
	.cfi_endproc
                                        # -- End function
	.section	.rodata.cst16,"aM",@progbits,16
	.p2align	4                               # -- Begin function _Z3runii
.LCPI1_0:
	.quad	9120613216031552656             # 0x7e92ed659b4b3490
	.quad	-2420264844357422131            # 0xde697df279b5b3cd
.LCPI1_1:
	.quad	6590629788102937398             # 0x5b769edfa5fbcb36
	.quad	-5343664792731521349            # 0xb5d77d2ed679eebb
.LCPI1_2:
	.quad	-591265818948550705             # 0xf7cb66decdbdbfcf
	.quad	-1480075160427234892            # 0xeb75b77bbddaf9b4
.LCPI1_3:
	.quad	-810845881194529286             # 0xf4bf4bf793cfbdfa
	.quad	-7279093702936561825            # 0x9afb76d7edaef75f
.LCPI1_4:
	.quad	9218230074085724007             # 0x7fedbb697fb3cf67
	.quad	4602392081769283038             # 0x3fdefb36beedbdde
.LCPI1_5:
	.quad	-577666916569066803             # 0xf7fbb6ffff67d2cd
	.quad	-2452251437135599234            # 0xddf7da4f7d97697e
.LCPI1_6:
	.quad	8069282467562747575             # 0x6ffbd9a6bf5d76b7
	.quad	-7566208195547578375            # 0x96ff6dbbcfbcbff9
.LCPI1_7:
	.quad	-1315347564329468433            # 0xedbef25bf7f77def
	.quad	-603802110986862689             # 0xf79edd2ddbff3f9f
.LCPI1_8:
	.quad	-76793197096535173              # 0xfeef2cfe7de4fb7b
	.quad	-1482071454752481283            # 0xeb6e9fdd3fbb5ffd
.LCPI1_9:
	.quad	-657689175338139661             # 0xf6df6b2dfb59bff3
	.quad	-5521993719660814485            # 0xb35deff7ffaddf6b
.LCPI1_10:
	.quad	6590164763555036671             # 0x5b74f7efaefe7dff
	.quad	-237583027724655142             # 0xfcb3ef7ebbcf65da
.LCPI1_11:
	.quad	-2343078007000933635            # 0xdf7bb6f77faddafd
	.quad	-2598929524901032529            # 0xdbeebf5de7ffcdaf
.LCPI1_12:
	.quad	-739047740046311721             # 0xf5be5ffefe7bfed7
	.quad	-2965057439935776019            # 0xd6d9fff7c9ffbaed
.LCPI1_13:
	.quad	-1157430055264158340            # 0xefeffb7f3f9e7d7c
	.quad	4464150970021838738             # 0x3df3d9a7b7ddff92
.LCPI1_14:
	.quad	-4981078082946942993            # 0xbadfa7dfdb76b7ef
	.quad	-1207005391074894985            # 0xef3fdafde6ffdb77
.LCPI1_15:
	.quad	9212057194603476887             # 0x7fd7cd35feebf797
	.quad	-6958082315650794497            # 0x9f6fecffd9b4fbff
.LCPI1_16:
	.quad	-3607384404527513731            # 0xcdeffeff2fda7f7d
	.quad	-4830110673931748109            # 0xbcf7ffeede79bcf3
.LCPI1_17:
	.quad	-41253728086918181              # 0xff6d6ff3efb7fbdb
	.quad	-2632363903575466052            # 0xdb77f6f9ffd2dfbc
.LCPI1_18:
	.quad	-5980923280468656193            # 0xacff7df6f6cd3fbf
	.quad	-4611828137125218433            # 0xbfff7ebe697ff77f
.LCPI1_19:
	.quad	-2330692616385466441            # 0xdfa7b769f7b7efb7
	.quad	7899151009551695062             # 0x6d9f6bfddf7f3cd6
.LCPI1_20:
	.quad	-405341851286052865             # 0xfa5fefbbdd7edfff
	.quad	-2819286477410369               # 0xfff5fbdfb6fe6fbf
.LCPI1_21:
	.quad	4599160299147982555             # 0x3fd37fecb7cb76db
	.quad	-576469845353179523             # 0xf7fff7badbffd67d
.LCPI1_22:
	.quad	-346782137665730201             # 0xfb2ffb7badfbc967
	.quad	-1757866764635507201            # 0xe79acd7dbb6f75ff
.LCPI1_23:
	.quad	-2882937084543893649            # 0xd7fdbffefdf5ff6f
	.quad	8786236791368407999             # 0x79eefbcf6dfb5bbf
.LCPI1_24:
	.quad	3960911121300307447             # 0x36f7fbadd3ffbdf7
	.quad	-4910217757981171845            # 0xbbdb66f6edb79f7b
.LCPI1_25:
	.quad	-1152957874440250369            # 0xefffdeebfcffdbff
	.quad	-4629736185511680514            # 0xbfbfdf77facde5fe
.LCPI1_26:
	.quad	-6931041203140102407            # 0x9fcffebf7b3cf6f9
	.quad	6772837076704951783             # 0x5dfdf36fee97fde7
.LCPI1_27:
	.quad	9069101170277613563             # 0x7ddbeb76d679fffb
	.quad	-612517056440975619             # 0xf77fe6fb7ff7befd
.LCPI1_28:
	.quad	-144120291611120145             # 0xfdfffb5bbd97edef
	.quad	-1297318236580614242            # 0xedfeffeff3f9ef9e
.LCPI1_29:
	.quad	-7282956259396100113            # 0x9aedbdde6bfcdfef
	.quad	-1441477353548846105            # 0xebfed7fbf5f36be7
.LCPI1_30:
	.quad	-90072886985099818              # 0xfebfff2fbf5bf5d6
	.quad	-5224809080262034577            # 0xb77dbfd2dfbefb6f
.LCPI1_31:
	.quad	-2596326491117592770            # 0xdbf7fecfefffdf3e
	.quad	9067714175097874171             # 0x7dd6fdffdb7ba6fb
.LCPI1_32:
	.quad	-5194481366495420673            # 0xb7e97eb7fda79eff
	.quad	6860671056288350191             # 0x5f35fff9eedeffef
.LCPI1_33:
	.quad	-4755995343387099713            # 0xbdff4f6efbfffdbf
	.quad	-2671839682538572805            # 0xdaebb7f6f97ef3fb
.LCPI1_34:
	.quad	8788211035377688429             # 0x79f5ff5feedadf6d
	.quad	-595917711276687629             # 0xf7badfffb7fd3ef3
.LCPI1_35:
	.quad	-9591057219584051               # 0xffddecfbf967ffcd
	.quad	-1333703294514103427            # 0xed7dbbeb7eb7fb7d
.LCPI1_36:
	.quad	3447364488426153947             # 0x2fd77fbcbfefe7db
	.quad	-3170772062289600517            # 0xd3ff279bdb7edffb
.LCPI1_37:
	.quad	-144115884951605770             # 0xfdffff5dbef7edf6
	.quad	-1729682149799414338            # 0xe7feef3fbedf35be
.LCPI1_38:
	.quad	-2347521237168161957            # 0xdf6beddf5be7fb5b
	.quad	-324334154747519108             # 0xfb7fbbcdfdbf5f7c
.LCPI1_39:
	.quad	8475626889073911807             # 0x759f79bff3ffe7ff
	.quad	-36592868269777921              # 0xff7dfefaed779bff
.LCPI1_40:
	.quad	-290870375527588427             # 0xfbf69eef3efe5db5
	.quad	-594673068811520002             # 0xf7bf4bfe9fff77fe
.LCPI1_41:
	.quad	-329959077956485383             # 0xfb6bbff77ffcfef9
	.quad	-167209341045776523             # 0xfdadf3fd7fd6df75
.LCPI1_42:
	.quad	-172408371046269442             # 0xfd9b7b7fff7bbdfe
	.quad	-2387541414067062835            # 0xdeddbfbbcfffb7cd
.LCPI1_43:
	.quad	-2364394892882870785            # 0xdf2ffb5f3cf7fdff
	.quad	-5919981986131613761            # 0xadd7ffbfbfe9e7bf
.LCPI1_44:
	.quad	-580990744848894097             # 0xf7efe7feeb7df76f
	.quad	9181959343539453430             # 0x7f6cdf5ff5bf7df6
.LCPI1_45:
	.quad	-73465321645719561              # 0xfefaffaddfff3ff7
	.quad	-142988153012241                # 0xffff7df3f9eebfef
.LCPI1_46:
	.quad	8034377752175669172             # 0x6f7fd7ff65bb6fb4
	.quad	-11261486005897733              # 0xffd7fdbcf6f9b5fb
.LCPI1_47:
	.quad	-4935955520995983669            # 0xbb7ff69affe7fecb
	.quad	-1461525290091282436            # 0xebb79e7dfddbfffc
.LCPI1_48:
	.quad	-5838974092162760770            # 0xaef7cbffd7edffbe
	.quad	-6954834531875685637            # 0x9f7b76d76fedfafb
.LCPI1_49:
	.quad	9058638643252883437             # 0x7db6bfd9efb6efed
	.quad	8628857260655734527             # 0x77bfdbf5feef6eff
.LCPI1_50:
	.quad	-3216221044894354449            # 0xd35daffffbefb3ef
	.quad	-1319556546417954881            # 0xedaffe4ff5b76fbf
.LCPI1_51:
	.quad	7914900384510640119             # 0x6dd75ff6fb5bfff7
	.quad	-4692753152750059523            # 0xbedffddeefbcfffd
.LCPI1_52:
	.quad	-23094159543906946              # 0xffadf3fbf7ffcd7e
	.quad	9151030699551864542             # 0x7efefdefdf7bb6de
.LCPI1_53:
	.quad	-7603203175289473041            # 0x967bfefeddbfb7ef
	.quad	-38355375568793794              # 0xff77bbfd37fecf3e
.LCPI1_54:
	.quad	-27323689339060493              # 0xff9eed3fd2fdfef3
	.quad	-581528677091639457             # 0xf7edfebfcf3fff5f
.LCPI1_55:
	.quad	8934789179179524084             # 0x7bfebf6b7fffdff4
	.quad	-792778738674827329             # 0xf4ff7befffcdffbf
.LCPI1_56:
	.quad	-4721050218190143525            # 0xbe7b75d6f9feffdb
	.quad	9222443413251026815             # 0x7ffcb36bf7f7ef7f
.LCPI1_57:
	.quad	-5773650186917527554            # 0xafdfdfbebf69bffe
	.quad	-2352075551743223075            # 0xdf5bbfbf5d76dadd
.LCPI1_58:
	.quad	-1173787074225538563            # 0xefb5dedffed779fd
	.quad	-4766220453701484553            # 0xbddafbbff7ebfff7
.LCPI1_59:
	.quad	-2378061149401981187            # 0xdeff6dfbefbcdefd
	.quad	8934287193731719150             # 0x7bfcf6dde7b35fee
.LCPI1_60:
	.quad	-82228635008796994              # 0xfedbdd7dfbef76be
	.quad	-648730588660369429             # 0xf6ff3ef77bf7f7eb
.LCPI1_61:
	.quad	-3927138885976567875            # 0xc97ffffd75be4fbd
	.quad	-144115811460598021             # 0xfdffff6edb5fb6fb
.LCPI1_62:
	.quad	-578158402594816405             # 0xf7f9f7fefd6dbe6b
	.quad	9184765886601297910             # 0x7f76d7e92ffefff6
.LCPI1_63:
	.quad	-5768143558468960353            # 0xaff36ffe97ffff9f
	.quad	-4697327256144445729            # 0xbecfbdbf7fbffedf
.LCPI1_64:
	.quad	-20618069980553217              # 0xffb6bff97edadfff
	.quad	-1738565379251372297            # 0xe7df5fffb6edfef7
.LCPI1_65:
	.quad	-2892454455649830193            # 0xd7dbefff59fefacf
	.quad	-1335317430311846401            # 0xed77ffdf37dffdff
.LCPI1_66:
	.quad	-4756124471521349645            # 0xbdfed9fdff6d6ff3
	.quad	-72693266444732695              # 0xfefdbddbfbffb6e9
.LCPI1_67:
	.quad	-4512945913233545               # 0xffeff77fe5f37f77
	.quad	-1254534556465496673            # 0xee96ff77bb6bfd9f
.LCPI1_68:
	.quad	-37175744951093297              # 0xff7becdb5fedf7cf
	.quad	-3458808566232973443            # 0xcfffd7ef3f9aff7d
.LCPI1_69:
	.quad	4034937121044167931             # 0x37fef9eefedffcfb
	.quad	-901300502522888321             # 0xf37deff7df3dff7f
.LCPI1_70:
	.quad	5764537127143734764             # 0x4fffbff9adf3fdec
	.quad	-1154195391924682850            # 0xeffb7967feefbf9e
.LCPI1_71:
	.quad	-4719844290402060421            # 0xbe7fbe9feb6df77b
	.quad	-2324209399637479451            # 0xdfbebfdd7efbefe5
.LCPI1_72:
	.quad	-1180000312425992746            # 0xef9fcbf7beffadd6
	.quad	-613615724375648257             # 0xf77bffbfeffed7ff
.LCPI1_73:
	.quad	-167200552602603587             # 0xfdadfbfbb7df6fbd
	.quad	-3802111278057473               # 0xfff27dfffbdff7ff
.LCPI1_74:
	.quad	-4620772404262748291            # 0xbfdfb7faeffdbf7d
	.quad	-54082803733627034              # 0xff3fdbf9feffff66
.LCPI1_75:
	.quad	-595618720769147497             # 0xf7bbefeddefb7d97
	.quad	-654939634475728901             # 0xf6e92fdf59bffffb
.LCPI1_76:
	.quad	7923788737765366582             # 0x6df6f3dffdbedb36
	.quad	-4830392350209479233            # 0xbcf6ffbfffffedbf
.LCPI1_77:
	.quad	-10151795197747333              # 0xffdbeefefd67df7b
	.quad	-3477069801925387332            # 0xcfbef76ffcffdbbc
.LCPI1_78:
	.quad	-1155316791965145125            # 0xeff77d7fb3dfa7db
	.quad	-2310356783727715621            # 0xdfeff6bef97edadb
.LCPI1_79:
	.quad	-2614902604513415193            # 0xdbb5ffef7fbbefe7
	.quad	4611632691432652530             # 0x3fffcf7fd76bfef2
.LCPI1_80:
	.quad	-648520599119880195             # 0xf6fffdf37bef9ffd
	.quad	-2360453621595865603            # 0xdf3dfbeff7fe7dfd
.LCPI1_81:
	.quad	-1224979201791494505            # 0xeeffffe7fbf9f697
	.quad	-865397156923246737             # 0xf3fd7ddeeff4f76f
.LCPI1_82:
	.quad	-162411224771376657             # 0xfdbeffd9fff749ef
	.quad	9213203641095927294             # 0x7fdbdfe5dedbb5fe
.LCPI1_83:
	.quad	-633511971275777                # 0xfffdbfd2fffdbbff
	.quad	6444615882124520308             # 0x596fdfffefdf6b74
.LCPI1_84:
	.quad	-99508075089630017              # 0xfe9e79eed3ffecbf
	.quad	-5201799423827394945            # 0xb7cf7efbfdefbe7f
.LCPI1_85:
	.quad	-1191801886377254985            # 0xef75de7fafd7dfb7
	.quad	-4776085065883977733            # 0xbdb7efeff6eff7fb
.LCPI1_86:
	.quad	-369506690451770529             # 0xfadf3f9f6d7df35f
	.quad	9077000650897743661             # 0x7df7fbfffebfdf2d
.LCPI1_87:
	.quad	-5206583690943169070            # 0xb7be7fb7fffd7dd2
	.quad	-37158012717170705              # 0xff7bfcfbfb6effef
.LCPI1_88:
	.quad	-2504111343987590339            # 0xdd3f9bffff97fb3d
	.quad	7998245563853043647             # 0x6eff79f6bbcdf7bf
.LCPI1_89:
	.quad	-2594152979699410947            # 0xdbffb79bfffed7fd
	.quad	8767909239529107439             # 0x79addeffbcff6fef
.LCPI1_90:
	.quad	8644624024941327550             # 0x77f7dfbfdf6f74be
	.quad	-6954685924128277509            # 0x9f7bfdffdfecbbfb
.LCPI1_91:
	.quad	-1155173511655100546            # 0xeff7ffcfbfdb6f7e
	.quad	-4836870466578810889            # 0xbcdffbeffefdf7f7
.LCPI1_92:
	.quad	-5512407490401157301            # 0xb37ffe97ed6fbf4b
	.quad	-1171016247996317721            # 0xefbfb6ed3ff7ffe7
.LCPI1_93:
	.quad	-1174353774756502053            # 0xefb3db76beffe5db
	.quad	-4692832214509028353            # 0xbedfb5f6efadfbff
.LCPI1_94:
	.quad	-436858046139408969             # 0xf9eff7ebee96ddb7
	.quad	-4611703611293204517            # 0xbfffefffd77b7fdb
.LCPI1_95:
	.quad	-2884071811212378385            # 0xd7f9b7f7d9f7feef
	.quad	-2308662725070361601            # 0xdff5fb7bbdfeebff
.LCPI1_96:
	.quad	-1307312728498635009            # 0xeddb7dfff77dfeff
	.quad	-292892583019954181             # 0xfbef6fbf5fbfbffb
.LCPI1_97:
	.quad	-1188998817849025169            # 0xef7fd3dfefbfdd6f
	.quad	9151032589815889111             # 0x7efeffa7fbffbcd7
.LCPI1_98:
	.quad	-1270078201481233               # 0xfffb7cdedff6b7ef
	.quad	6912906680753413053             # 0x5fef93ffffbb5bbd
.LCPI1_99:
	.quad	3942760173625391035             # 0x36b77f7cff7fb7bb
	.quad	-337787585747222529             # 0xfb4feffafdffffff
.LCPI1_100:
	.quad	-290553172045923348             # 0xfbf7bf6defd6fbec
	.quad	-1801475142696731205            # 0xe6ffdfe6ffdd7dbb
.LCPI1_101:
	.quad	-4683895759811182881            # 0xbeff759f6f7efedf
	.quad	6772850872158977343             # 0x5dfdfffbefbafd3f
.LCPI1_102:
	.quad	-4756118179939368970            # 0xbdfedfb6deefbff6
	.quad	-297801917264833585             # 0xfbddfebbebffd3cf
.LCPI1_103:
	.quad	-1188986604988436995            # 0xef7fdefb76f76dfd
	.quad	-1266917643911430               # 0xfffb7fbebfdffefa
.LCPI1_104:
	.quad	-86228532350421267              # 0xfecda79b4fbff6ed
	.quad	9169037452474544119             # 0x7f3ef6fbbeff6ff7
.LCPI1_105:
	.quad	-82191354633914466              # 0xfedbff65ff6ff79e
	.quad	-578292560787802131             # 0xf7f97dfad9fdf7ed
.LCPI1_106:
	.quad	-2600828923455471625            # 0xdbe7ffdfb7dffff7
	.quad	-2533347804971849               # 0xfff6ffeefffdfcb7
.LCPI1_107:
	.quad	-288397506487386501             # 0xfbff67feefb5fe7b
	.quad	9187026577265752551             # 0x7f7edfff3fff79e7
.LCPI1_108:
	.quad	-5335837570707230725            # 0xb5f34bfffacfeffb
	.quad	-4908923765675600259            # 0xbbdfffd7fd6ed67d
.LCPI1_109:
	.quad	6773061443652943679             # 0x5dfebf7f6ed3ff3f
	.quad	-576496774345396737             # 0xf7ffdf3cf6fbedff
.LCPI1_110:
	.quad	-3170534155420175363            # 0xd3fffffbddeff3fd
	.quad	-3607946254698448402            # 0xcdedffff3fff79ee
.LCPI1_111:
	.quad	-5766017372901116225            # 0xaffafdbfbf7f76bf
	.quad	-5553512700694388871            # 0xb2edf59f5b7d9f79
.LCPI1_112:
	.quad	-1441725276374995073            # 0xebfdf67fedf76f7f
	.quad	8051309640586886839             # 0x6fbbff75dfdbfeb7
.LCPI1_113:
	.quad	-5296347544617989               # 0xffed2efffdfefbfb
	.quad	-2630420155997357067            # 0xdb7edecdffbffbf5
.LCPI1_114:
	.quad	8572597483517765367             # 0x76f7fbfddf7be6f7
	.quad	-4936534976540845185            # 0xbb7de797fdfddb7f
.LCPI1_115:
	.quad	9223046580337049533             # 0x7ffed7ffbfdeffbd
	.quad	-147633699375055430             # 0xfdf37feebfdf7dba
.LCPI1_116:
	.quad	-2314920583927702529            # 0xdfdfbffe6fbfdbff
	.quad	-2308446653170327633            # 0xdff6bfffe6d7dfaf
.LCPI1_117:
	.quad	-585608965535334409             # 0xf7df7fbf9ffb7ff7
	.quad	-2604225177097685297            # 0xdbdbeeffcbf6b6cf
.LCPI1_118:
	.quad	-185214935981162627             # 0xfd6dfbff3dbeff7d
	.quad	-72233524689666085              # 0xfeff5ffdf3ff7fdb
.LCPI1_119:
	.quad	-72286434261819399              # 0xfeff2fdefbbe9ff9
	.quad	-1337855529594650626            # 0xed6efb7bedb7fffe
.LCPI1_120:
	.quad	-1747697922748973065            # 0xe7beedffbbdbfff7
	.quad	-2307059071225760807            # 0xdffbadff7fbef3d9
.LCPI1_121:
	.quad	-150949892211343370             # 0xfde7b7df6fdbfff6
	.quad	8502773212728130815             # 0x75ffeb2ff65dfcff
.LCPI1_122:
	.quad	-4617482781172835717            # 0xbfeb67dfffb5da7b
	.quad	-1459166279268409857            # 0xebbffffffffa5dff
.LCPI1_123:
	.quad	-648664032372348930             # 0xf6ff7b7fd3dfa7fe
	.quad	-4733285441792450593            # 0xbe4ffdf7fd6edfdf
.LCPI1_124:
	.quad	-150870656387395593             # 0xfde7ffeff6ffcff7
	.quad	-595640633138479650             # 0xf7bbdbfffffdfdde
.LCPI1_125:
	.quad	-865274164662001683             # 0xf3fdedbb4dff9fed
	.quad	-2328365546195681473            # 0xdfaffbdf37bf7f3f
.LCPI1_126:
	.quad	-5992325224562950150            # 0xacd6fbf4fb4ffffa
	.quad	-2963511492131447041            # 0xd6df7dffcfb79eff
.LCPI1_127:
	.quad	-1171815659839952385            # 0xefbcdfddacffe9ff
	.quad	-18015300528111689              # 0xffbfff2dfb7fffb7
.LCPI1_128:
	.quad	-577586830451623075             # 0xf7fbffd67ffcbb5d
	.quad	8932564198208830271             # 0x7bf6d7cfbf9bfb3f
.LCPI1_129:
	.quad	4611525480577740731             # 0x3fff6dfdde7fafbb
	.quad	-140772427456529                # 0xffff7ff7dd779fef
.LCPI1_130:
	.quad	-2342153927652574233            # 0xdf7eff697cfb7be7
	.quad	-5836810837880209926            # 0xaeff7b77bafffdfa
.LCPI1_131:
	.quad	-41741041351598113              # 0xff6bb4be79aedfdf
	.quad	9198518538295836543             # 0x7fa7b3dfeef7ff7f
.LCPI1_132:
	.quad	-577868716134761221             # 0xf7faff76dff9fcfb
	.quad	-685110368201082147             # 0xf67dffbfff6ffadd
.LCPI1_133:
	.quad	-2360521310146134097            # 0xdf3dbe5fffffffaf
	.quad	3449433783133667319             # 0x2fded9bff7e9fff7
.LCPI1_134:
	.quad	-4900479626129770641            # 0xbbfdffbe6f7ef76f
	.quad	-328773244096876553             # 0xfb6ff679f5f3eff7
.LCPI1_135:
	.quad	8565793680263165951             # 0x76dfcff7fb5f37ff
	.quad	-576531310597701765             # 0xf7ffbfd3ddeeff7b
.LCPI1_136:
	.quad	-2308377393313722371            # 0xdff6fefdb7fe4ffd
	.quad	-4782825553046799109            # 0xbd9ffd7ffffbfcfb
.LCPI1_137:
	.quad	-573137889141041                # 0xfffdf6bbefb5decf
	.quad	6593233011938941950             # 0x5b7fde7dedffdbfe
.LCPI1_138:
	.quad	-1747573200117698593            # 0xe7bf5f6efbfdefdf
	.quad	-360298316866650117             # 0xfafff696f9fdfffb
.LCPI1_139:
	.quad	-79164837266009                 # 0xffffb7fffffefda7
	.quad	4034886615996169471             # 0x37fecbffdf6dfcff
.LCPI1_140:
	.quad	-2341944409165678625            # 0xdf7fbdf7cff7b7df
	.quad	-149252123604324498             # 0xfdedbffbfe976f6e
.LCPI1_141:
	.quad	-1225155024935583842            # 0xeeff5ffef7edff9e
	.quad	-864851811843449093             # 0xf3ff6ddbfbb7defb
.LCPI1_142:
	.quad	7633037318927645694             # 0x69edfefffffb7bfe
	.quad	8635614316871024319             # 0x77d7dd77be5ffebf
.LCPI1_143:
	.quad	-77707041552090113              # 0xfeebeddb7fbdbbff
	.quad	-1189236243811045443            # 0xef7efbefe59f6fbd
.LCPI1_144:
	.quad	-162132348937570377             # 0xfdbffd7cd6f9f7b7
	.quad	-4616330377294799909            # 0xbfef7ffaef7f9bdb
.LCPI1_145:
	.quad	-2308377951559221763            # 0xdff6fe7bbdf7fdfd
	.quad	-1387161536413323269            # 0xecbfcfee9fffaffb
.LCPI1_146:
	.quad	-4980990022627951619            # 0xbadff7f6ff7efbfd
	.quad	-146380347660111947             # 0xfdf7f3d96f9eefb5
.LCPI1_147:
	.quad	-144119596322951458             # 0xfdfffbfd9fff6ede
	.quad	-613694648527358977             # 0xf77bb7f7f9f7f3ff
.LCPI1_148:
	.quad	-2331176463639773714            # 0xdfa5ff5b7ffffdee
	.quad	-2533283447736321               # 0xfff6fffdfbfb77ff
.LCPI1_149:
	.quad	-288450416256550933             # 0xfbff37dfebb6f7eb
	.quad	-1157988605440860306            # 0xefedff7fa6bf5f6e
.LCPI1_150:
	.quad	-1125901609762817               # 0xfffbffff9a7f7fff
	.quad	-6954687164837347457            # 0x9f7bfcdeffe6bf7f
.LCPI1_151:
	.quad	9187236509459938111             # 0x7f7f9eede5dbfb3f
	.quad	-585488026386563593             # 0xf7dfedbdf6fbfdf7
.LCPI1_152:
	.quad	-45037100626609205              # 0xff5ffefedf6ffbcb
	.quad	-3747628838168297484            # 0xcbfdbf6d6ef7fff4
.LCPI1_153:
	.quad	-4611688326453299265            # 0xbffffde69eef77bf
	.quad	-2379035748088161541            # 0xdefbf7977f3fdafb
.LCPI1_154:
	.quad	8934846304391781759             # 0x7bfef35ffffbdd7f
	.quad	8493788304381034207             # 0x75dfff75f7ffbedf
.LCPI1_155:
	.quad	-613071208229390337             # 0xf77deefbfb77b7ff
	.quad	-1152992578951022145            # 0xefffbf5bb6f679bf
.LCPI1_156:
	.quad	9219853255970782974             # 0x7ff37faffb5dfefe
	.quad	-4688836557313034241            # 0xbeede7fe5f7db7ff
.LCPI1_157:
	.quad	-321058490549250                # 0xfffedbffbeb7fbfe
	.quad	-101331000207116289             # 0xfe97fffdffeb77ff
.LCPI1_158:
	.quad	-36172867977218081              # 0xff7f7cf7ddb5f7df
	.quad	-3746994893227099274            # 0xcbffffff3dfefb76
.LCPI1_159:
	.quad	-5350560040585658373            # 0xb5befdfdd77dfffb
	.quad	-298504251498431889             # 0xfbdb7ff6fd7dfa6f
.LCPI1_160:
	.quad	-1441477888405733442            # 0xebfed77f6dfeffbe
	.quad	-4829178284491165697            # 0xbcfb4fefb3dfafff
.LCPI1_161:
	.quad	-4899918597973877157            # 0xbbfffdfefb6fde5b
	.quad	-2324420383587172425            # 0xdfbdfff9f79bffb7
.LCPI1_162:
	.quad	-5773615040142901769            # 0xafdfffb5fe6dfdf7
	.quad	-576470665667814707             # 0xf7fff6fbdd6fdacd
.LCPI1_163:
	.quad	-3602885268192985106            # 0xcdfffaeffede7fee
	.quad	4535929632769931255             # 0x3ef2dbf7f76b77f7
.LCPI1_164:
	.quad	-293323589427085441             # 0xfbede7bfdff4bf7f
	.quad	9024926517234228735             # 0x7d3efad9efbfddff
.LCPI1_165:
	.quad	-594794018382020865             # 0xf7beddfddbcffeff
	.quad	-2887601367455254565            # 0xd7ed2ddaffe5b7db
.LCPI1_166:
	.quad	-144186863564095555             # 0xfdffbecfbffbffbd
	.quad	8572455856910626047             # 0x76f77b2edbdfecff
.LCPI1_167:
	.quad	-46188576522765441              # 0xff5be7bbffadfb7f
	.quad	-2324430324435518977            # 0xdfbdf6ef6edff9ff
.LCPI1_168:
	.quad	-4629845553145987109            # 0xbfbf7bffd7cfbfdb
	.quad	-4612820753150118017            # 0xbffbf7f6fbeff77f
.LCPI1_169:
	.quad	9223372027845402103             # 0x7ffffffde6ffddf7
	.quad	-4620851552205275693            # 0xbfdf6ffedefdfdd3
.LCPI1_170:
	.quad	-81161860425976833              # 0xfedfa7b7cbfff3ff
	.quad	-40532484695262276              # 0xff6fffeb7fdffbbc
.LCPI1_171:
	.quad	-216208241363784046             # 0xfcffdfbfffffee92
	.quad	-7277898383980249105            # 0x9affb5facf77bfef
.LCPI1_172:
	.quad	9222483064120663023             # 0x7ffcd77be7f7dbef
	.quad	-1831012316774154785            # 0xe696efffbf4fbddf
.LCPI1_173:
	.quad	-1339224489984005               # 0xfffb3dfb7ffffffb
	.quad	7635812340247232510             # 0x69f7daddfffafffe
.LCPI1_174:
	.quad	-83616553624535557              # 0xfed6ef2fffddfdfb
	.quad	-4906109961027215521            # 0xbbe9fefbeff79f5f
.LCPI1_175:
	.quad	8917047538974457327             # 0x7bbfb77dfdd7fdef
	.quad	-4611690966903066657            # 0xbffffb7fd7dd6fdf
.LCPI1_176:
	.quad	-6922036104044487685            # 0x9feffcd67fffdbfb
	.quad	-2328643171686285385            # 0xdfaeff5f7effffb7
.LCPI1_177:
	.quad	7925173980703436531             # 0x6dfbdfbefeff2ef3
	.quad	-361486440314437633             # 0xfafbbdff6defffff
.LCPI1_178:
	.quad	-2328959212547245570            # 0xdfaddfef7fbf79fe
	.quad	3458762270638604254             # 0x2ffffdf5b7efffde
.LCPI1_179:
	.quad	-5188146790062899475            # 0xb7fffffb7fb7beed
	.quad	-1171780482665554442            # 0xefbcffdbfffbddf6
.LCPI1_180:
	.quad	-588880914101045857             # 0xf7d3dfedbbfff59f
	.quad	-578220011777180705             # 0xf7f9bff67bffbbdf
.LCPI1_181:
	.quad	-1339821028733354178            # 0xed67ffdf7fbfff3e
	.quad	4591274684021862327             # 0x3fb77bffdf5defb7
.LCPI1_182:
	.quad	-36758907410980881              # 0xff7d67f7ed6fdfef
	.quad	-54931600974323723              # 0xff3cd7fffcfb5ff5
.LCPI1_183:
	.quad	-18018830983905861              # 0xffbffbf7fbefbdbb
	.quad	-324262613440529665             # 0xfb7ffcdeffeffaff
.LCPI1_184:
	.quad	-290486574287229577             # 0xfbf7fbffef96ed77
	.quad	-1738394168960745989            # 0xe7dffbb6b77bfdfb
.LCPI1_185:
	.quad	-564084638508035                # 0xfffdfef7cf7f9bfd
	.quad	-1191273707273261651            # 0xef77bedff7b6edad
.LCPI1_186:
	.quad	3457209800080488375             # 0x2ffa79feffcbf7b7
	.quad	-4684377075120013313            # 0xbefdbfde7b7cffff
.LCPI1_187:
	.quad	-22835354348847121              # 0xffaedf5dbfb77fef
	.quad	-1747432458283927809            # 0xe7bfdf6ffeffb6ff
.LCPI1_188:
	.quad	-612559940111974403             # 0xf77fbffaddfdbffd
	.quad	9078969875839315837             # 0x7dfefaffe7dfef7d
.LCPI1_189:
	.quad	-83756951875377217              # 0xfed66f7efbffa7bf
	.quad	-45600321187112097              # 0xff5dfebfddff9b5f
.LCPI1_190:
	.quad	7746085805960133607             # 0x6b7f9ffffff2fbe7
	.quad	-1300467718936363617            # 0xedf3cf7ff2ef7d9f
.LCPI1_191:
	.quad	-2387119183918792737            # 0xdedf3fbfedffffdf
	.quad	-145034929825186393             # 0xfdfcbb7fefbefda7
.LCPI1_192:
	.quad	4592545684954017019             # 0x3fbbfff7d66fecfb
	.quad	-108114978996756737             # 0xfe7fe5ffd9ffdeff
.LCPI1_193:
	.quad	-3602914972337706004            # 0xcdffdfebf5dfebec
	.quad	9220803293150705566             # 0x7ff6dfbdbffff79e
.LCPI1_194:
	.quad	-7494062762184737031            # 0x97ffbd9f7f7efef9
	.quad	9222804137991175535             # 0x7ffdfb7fbdf77d6f
.LCPI1_195:
	.quad	9147936090261026038             # 0x7ef3ff67fffbf4f6
	.quad	-41098819152659463              # 0xff6dfcd77bb7bbf9
.LCPI1_196:
	.quad	-180438654383063042             # 0xfd7ef3fff5bf7ffe
	.quad	-657528363766010121             # 0xf6dffd6fd7fbaef7
.LCPI1_197:
	.quad	-909869000383553553             # 0xf35f7ef6ffff9fef
	.quad	-2341915795288335361            # 0xdf7fd7fdfff65bff
.LCPI1_198:
	.quad	-1148444257419777               # 0xfffbeb7efbfdfdff
	.quad	-81135574656813317              # 0xfedfbf9fedeef6fb
.LCPI1_199:
	.quad	8788202926477660087             # 0x79f5f7ffeebfcfb7
	.quad	3458478085135663103             # 0x2ffefb7e9ffbffff
.LCPI1_200:
	.quad	-9018196788527363               # 0xffdff5ff6fe7befd
	.quad	-1209889950955275970            # 0xef359b7ff7fef93e
.LCPI1_201:
	.quad	-5773757664311941381            # 0xafdf7dfeb77f66fb
	.quad	-9728618544515217               # 0xffdd6fdf7b7fb76f
.LCPI1_202:
	.quad	8786483152739368934             # 0x79efdbdfe7fbffe6
	.quad	-19157968515809857              # 0xffbbefeddbff3dbf
.LCPI1_203:
	.quad	-73766235712522263              # 0xfef9edffdbeff7e9
	.quad	9218783765940105207             # 0x7fefb2fdedff6ff7
.LCPI1_204:
	.quad	-299354927812673                # 0xfffeefbcffddafbf
	.quad	-5630599046504753               # 0xffebfefffff5decf
.LCPI1_205:
	.quad	-2859901701620753               # 0xfff5d6ef3efb7bef
	.quad	-5263601860530440706            # 0xb6f3edfedfff75fe
.LCPI1_206:
	.quad	-6918656336305652769            # 0x9ffbfeb7ff7efbdf
	.quad	-309138758119985793             # 0xfbb5b7eff7f3ed7f
.LCPI1_207:
	.quad	-5784174707511136297            # 0xafba7bbfd7ffefd7
	.quad	-684548535031455761             # 0xf67ffebbf9ef9fef
.LCPI1_208:
	.quad	-40533084948497921              # 0xff6fff5fbdfe79ff
	.quad	9221119956792209402             # 0x7ff7ffbebfdd6ffa
.LCPI1_209:
	.quad	-5273811924981647363            # 0xb6cfa7feff3ff7fd
	.quad	9222795883081362422             # 0x7ffdf3fdbeffebf6
.LCPI1_210:
	.quad	8069025530214577855             # 0x6ffaeff7dbff76bf
	.quad	-6994653207801249843            # 0x9eedfff77df5bfcd
.LCPI1_211:
	.quad	-2598581529070339073            # 0xdbeffbddffdefbff
	.quad	-4620693286418647561            # 0xbfdfffeffefbf5f7
.LCPI1_212:
	.quad	-5225017273484421               # 0xffed6fdfdd77fb7b
	.quad	-1444318491445560916            # 0xebf4bffbfedbf9ac
.LCPI1_213:
	.quad	-579996850636096097             # 0xf7f36feff2fd7d9f
	.quad	-2630242958862977313            # 0xdb7f7ff6ebfff6df
.LCPI1_214:
	.quad	-2306199259591999619            # 0xdffebbfdfebfff7d
	.quad	-18313509704318989              # 0xffbeeff5bf7bbff3
.LCPI1_215:
	.quad	-2314859298767308081            # 0xdfdff7bb7ff6facf
	.quad	-2305879431665221635            # 0xdfffdedfbcb6fffd
.LCPI1_216:
	.quad	-146371660960104705             # 0xfdf7fbbff749feff
	.quad	-2598586058115449217            # 0xdbeff7bf7fbefe7f
.LCPI1_217:
	.quad	-1351090359643676673            # 0xed3ff679edfbdfff
	.quad	8565844292166975198             # 0x76dffdfffbeb7ede
.LCPI1_218:
	.quad	-7566277174061319349            # 0x96ff2eff7fedbb4b
	.quad	-294985854009507905             # 0xfbe7ffedbdff7fbf
.LCPI1_219:
	.quad	-155378594334787841             # 0xfdd7fbfddef9b6ff
	.quad	-585468398515782021             # 0xf7dfff97ef3ffe7b
.LCPI1_220:
	.quad	-2630384828025405505            # 0xdb7efeef6ef7ffbf
	.quad	-1153069424556691973            # 0xefff7977b3ef2dfb
.LCPI1_221:
	.quad	-4652370148014034049            # 0xbf6f75ffebfdf37f
	.quad	-2618843889840234521            # 0xdba7ff5b7fdedfe7
.LCPI1_222:
	.quad	-5206496251315490849            # 0xb7becf3e9fefefdf
	.quad	-360861090626226179             # 0xfafdf6bffff6b7fd
.LCPI1_223:
	.quad	-150910308618109458             # 0xfde7dbdfb5df7dee
	.quad	-216177223313526797             # 0xfcfffbf5f3ddeff3
.LCPI1_224:
	.quad	-2377902819526592519            # 0xdefffdfbfbb7b7f9
	.quad	-1297612837178344577            # 0xedfdf3ffe7ff7b7f
.LCPI1_225:
	.quad	8556539666410242046             # 0x76beef7dfaebfffe
	.quad	-5225302711657826323            # 0xb77bfede5bbff7ed
.LCPI1_226:
	.quad	-1441195870893641731            # 0xebffd7fdbf9feffd
	.quad	4467550690702508023             # 0x3dffedaedf5fbff7
.LCPI1_227:
	.quad	-5481594605241237761            # 0xb3ed76bfcfe5feff
	.quad	6917246367253364733             # 0x5ffefeebffff7ffd
.LCPI1_228:
	.quad	-90078693252274210              # 0xfebff9e7dedde7de
	.quad	-301743683371270273             # 0xfbcffdb7fb6fff7f
.LCPI1_229:
	.quad	-308505527468752905             # 0xfbb7f7db77fafff7
	.quad	-549756207653                   # 0xffffff7ffff9fddb
.LCPI1_230:
	.quad	-324833120657433873             # 0xfb7df5ff6fee9aef
	.quad	-185215088555197636             # 0xfd6dfbdbb79ffb3c
.LCPI1_231:
	.quad	9211824861578491835             # 0x7fd6f9e7bf7f77bb
	.quad	-2382624397262323985            # 0xdeef37bbfffffeef
.LCPI1_232:
	.quad	-1445657268350627978            # 0xebeffe5fb4ffcf76
	.quad	-28464158103306753              # 0xff9adfffbf6bfdff
.LCPI1_233:
	.quad	-2311051533808045219            # 0xdfed7edfddbff35d
	.quad	-38289393194173571              # 0xff77f7ffeffefb7d
.LCPI1_234:
	.quad	-4701899032006496513            # 0xbebf7fbdfb7feeff
	.quad	-298504402623266837             # 0xfbdb7fd3cdbfffeb
.LCPI1_235:
	.quad	-36908408753881114              # 0xff7cdfff6effffe6
	.quad	-4629845556919812102            # 0xbfbf7bfef6dfbffa
.LCPI1_236:
	.quad	-2346447148994863137            # 0xdf6fbebfffeedfdf
	.quad	-439180757991161857             # 0xf9e7b76d6fbfffff
.LCPI1_237:
	.quad	-1163111783884423433            # 0xefdbcbfeb77f7ef7
	.quad	-3244306987562828833            # 0xd2f9e7fbdffffbdf
.LCPI1_238:
	.quad	-2452773565532016785            # 0xddf5ff6ffffeef6f
	.quad	-72484277566177282              # 0xfefe7beeffddfffe
.LCPI1_239:
	.quad	-81628035312787457              # 0xfeddffbbff77dfff
	.quad	-4820284783764993               # 0xffeedff9fdbf59ff
.LCPI1_240:
	.quad	-1812699442799757314            # 0xe6d7ff75fb5f37fe
	.quad	-653604844439994497             # 0xf6ededdb5fadff7f
.LCPI1_241:
	.quad	-2594077784619951113            # 0xdbfffbffb7fedbf7
	.quad	-4631956614939935297            # 0xbfb7fbfff77bfdbf
.LCPI1_242:
	.quad	-582239790285086865             # 0xf7eb77feddf59f6f
	.quad	8016372148806876670             # 0x6f3fdfff2cf7fdfe
.LCPI1_243:
	.quad	-723021258534424613             # 0xf5f74ffeffffefdb
	.quad	-2305852909121700001            # 0xdffff6feff7fff5f
.LCPI1_244:
	.quad	8934574158081883565             # 0x7bfdfbdbffdafdad
	.quad	-18190330043174949              # 0xffbf5ffdbf6defdb
.LCPI1_245:
	.quad	-9571283147753507               # 0xffddfef7fbeef7dd
	.quad	-3458801416330548291            # 0xcfffde6ff6ffebbd
.LCPI1_246:
	.quad	8067879873860861843             # 0x6ff6ddfff3ffff93
	.quad	-9218442930432017               # 0xffdf3fdfffbfd7ef
.LCPI1_247:
	.quad	-1302109298188353681            # 0xededfa7dfebfff6f
	.quad	9140052693341650678             # 0x7ed7fd7f9efb3ef6
.LCPI1_248:
	.quad	-2992096629051949093            # 0xd679eff7fbb6ffdb
	.quad	8032089464738054078             # 0x6f77b6cff5de7fbe
.LCPI1_249:
	.quad	-666955512054825217             # 0xf6be7f7ed6fbbeff
	.quad	-4616189893202296833            # 0xbfefffbfefedbfff
.LCPI1_250:
	.quad	-2323893702344639049            # 0xdfbfdefd7ffafdb7
	.quad	-20424529610299393              # 0xffb76fff9fdfa7ff
.LCPI1_251:
	.quad	-4899916705976821889            # 0xbbffffb77f3fd77f
	.quad	-149181763577447041             # 0xfdedfff9f6fffd7f
.LCPI1_252:
	.quad	-1316476621037764610            # 0xedbaef7cf7effffe
	.quad	-2314850500593855489            # 0xdfdfffbbfbf7d3ff
.LCPI1_253:
	.quad	-2362143502132842689            # 0xdf37fafffedfef3f
	.quad	-154248356092221445             # 0xfddbffeff7ef67fb
.LCPI1_254:
	.quad	-2599289885148332055            # 0xdbed779eff77bfe9
	.quad	-436857961055299201             # 0xf9eff7ffbdff597f
.LCPI1_255:
	.quad	9150153014930030519             # 0x7efbdfafff5fbfb7
	.quad	-108104017604264101             # 0xfe7feff7ffe7bf5b
.LCPI1_256:
	.quad	-1333418503840998540            # 0xed7ebeef7d9fdb74
	.quad	-4684025100547524673            # 0xbefefffcf2d9f7bf
.LCPI1_257:
	.quad	-9024929463402753               # 0xffdfefdfdd35feff
	.quad	7764205685643640806             # 0x6bbfffef3fdb7fe6
.LCPI1_258:
	.quad	-5836682711004219905            # 0xaeffefff97edf5ff
	.quad	-4900057134219133059            # 0xbbff7fff7fbfff7d
.LCPI1_259:
	.quad	9204794052331372543             # 0x7fbdff6be7d6ffff
	.quad	-1172378746376851713            # 0xefbadfbddffd6eff
.LCPI1_260:
	.quad	-2305915594430554161            # 0xdfffbdfbefeedfcf
	.quad	-1173187843628011601            # 0xefb7ffdf3dbeefaf
.LCPI1_261:
	.quad	9067997771318554619             # 0x7dd7ffedbf79effb
	.quad	-365372387371335815             # 0xfaedefbfdffebf79
.LCPI1_262:
	.quad	-450646961326948362             # 0xf9befaf9eeff7ff6
	.quad	-9024895602164577               # 0xffdfefe7bf7f7c9f
.LCPI1_263:
	.quad	-5194412924005778593            # 0xb7e9bcf77feffb5f
	.quad	-3497081540702442497            # 0xcf77deddf7daebff
.LCPI1_264:
	.quad	-4755941952590055685            # 0xbdff7ffdff7df6fb
	.quad	-297396218660144161             # 0xfbdf6fb6fd37bbdf
.LCPI1_265:
	.quad	7779291056010420157             # 0x6bf597ffbddfdfbd
	.quad	-578752203389407777             # 0xf7f7dbeff7ffeddf
.LCPI1_266:
	.quad	-2702159918193967491            # 0xda7fffdefdbffe7d
	.quad	9218859640731467645             # 0x7feff7ffe7fbff7d
.LCPI1_267:
	.quad	-5765069317926552065            # 0xaffe5bffff7bfdff
	.quad	-289365074870543411             # 0xfbfbf7ff5defdbcd
.LCPI1_268:
	.quad	-1159712776722092035            # 0xefe7df5fbdff6ffd
	.quad	9223365164771671990             # 0x7ffff9bff7ed7fb6
.LCPI1_269:
	.quad	-565151196193153                # 0xfffdfdff7bb4de7f
	.quad	8935140406571818478             # 0x7bfffedbfff3ddee
.LCPI1_270:
	.quad	8573725213624055799             # 0x76fbfda7ffdf37f7
	.quad	-2305930991618752689            # 0xdfffaffaffffff4f
.LCPI1_271:
	.quad	-3895940234944196683            # 0xc9eed6ff75ffcfb5
	.quad	-576478344556707841             # 0xf7ffeffffbfdffff
.LCPI1_272:
	.quad	-13511078596068353              # 0xffcfffbedfbfbbff
	.quad	-289083692754665996             # 0xfbfcf7e9befffdf4
.LCPI1_273:
	.quad	-1389360519473793057            # 0xecb7fff7fbcff7df
	.quad	-6932308665127012355            # 0x9fcb7dff7dbdf7fd
.LCPI1_274:
	.quad	9218511643153202623             # 0x7feebb7f67f2fdbf
	.quad	-1181069552186036481            # 0xef9bff7ff6ebeeff
.LCPI1_275:
	.quad	-10160587791681537              # 0xffdbe6ffcdf7b7ff
	.quad	-36697851058717714              # 0xff7d9f7fb79ffbee
.LCPI1_276:
	.quad	9151032897979776982             # 0x7efeffefbbff7fd6
	.quad	-297450902942908433             # 0xfbdf3dfacff7ffef
.LCPI1_277:
	.quad	9186766519943819238             # 0x7f7df379efb3efe6
	.quad	7987115797181873663             # 0x6ed7ef7ffeefbdff
.LCPI1_278:
	.quad	-5188376590136903683            # 0xb7ff2efaffeff7fd
	.quad	-2740545937417274369            # 0xd9f79ffd6d9a7bff
.LCPI1_279:
	.quad	4537376074123689403             # 0x3ef7ff7fd67fbdbb
	.quad	-612631386327613729             # 0xf77f7effffaffedf
.LCPI1_280:
	.quad	9205075062782582207             # 0x7fbefeffbff65dbf
	.quad	-4630862154656006210            # 0xbfbbdf67dbedbfbe
.LCPI1_281:
	.quad	-333409311395029029             # 0xfb5f7dff6d7ddfdb
	.quad	-25051410371194961              # 0xffa6ffdfffb3cfaf
.LCPI1_282:
	.quad	-1297182654462345729            # 0xedff7b3f9ff93dff
	.quad	-37154699618616577              # 0xff7bffff5f7efaff
.LCPI1_283:
	.quad	-38847944987838017              # 0xff75fbfff6bef9bf
	.quad	-4686422134469427202            # 0xbef67be5ff6bfffe
.LCPI1_284:
	.quad	-648588717770033283             # 0xf6ffbfff5ffdb77d
	.quad	7777117716392173567             # 0x6beddf5badf3dfff
.LCPI1_285:
	.quad	-579841476301947201             # 0xf7f3fd3fdafbfebf
	.quad	-1196268722913283               # 0xfffbbffffbb6fffd
.LCPI1_286:
	.quad	-180223288446821377             # 0xfd7fb7dfbfdfdbff
	.quad	9061224514483776759             # 0x7dbfefafffddecf7
.LCPI1_287:
	.quad	-4936526970994294821            # 0xbb7deedfedbfffdb
	.quad	8051801097018015655             # 0x6fbdbe6ffddbffa7
.LCPI1_288:
	.quad	-1729558178907047937            # 0xe7ff5ffff7dfb7ff
	.quad	-292885708418327587             # 0xfbef75fffdefdbdd
.LCPI1_289:
	.quad	-450439138314092673             # 0xf9bfb7fd7fdaff7f
	.quad	-585806880472072705             # 0xf7decbbef67b7dff
.LCPI1_290:
	.quad	-2666133488008691969            # 0xdafffdb7eb77feff
	.quad	-1155178870737993937            # 0xeff7faeffd9fff2f
.LCPI1_291:
	.quad	9006037856795062175             # 0x7cfbdfb6f7fd6f9f
	.quad	-2319584845124091905            # 0xdfcf2ddf7fffbfff
.LCPI1_292:
	.quad	-1463705767646339609            # 0xebafdf5bffbfdde7
	.quad	-550915541289                   # 0xffffff7fbadff6d7
.LCPI1_293:
	.quad	-4612812090133005335            # 0xbffbffd7fffebbe9
	.quad	-290527462373298241             # 0xfbf7d6cfefbe6fbf
.LCPI1_294:
	.quad	4537356759813058491             # 0x3ef7edeedfdfefbb
	.quad	-612498345420128433             # 0xf77ff7ffffb7ff4f
.LCPI1_295:
	.quad	-1171815514868352586            # 0xefbcdfff6dfaf9b6
	.quad	-5188289777707941925            # 0xb7ff7def97ed7fdb
.LCPI1_296:
	.quad	-9077843149456677               # 0xffdfbfbfefbffadb
	.quad	9222443359698345967             # 0x7ffcb35f7ffadfef
.LCPI1_297:
	.quad	4467254127491022839             # 0x3dfedff5de7ffff7
	.quad	-2307622053462671363            # 0xdff9adf7fb7ffffd
.LCPI1_298:
	.quad	-144714971807219842             # 0xfdfdde7ff7bfff7e
	.quad	3456336478471188467             # 0x2ff75fb6f77feff3
.LCPI1_299:
	.quad	-2319362606940422401            # 0xdfcff7ff5bfdfeff
	.quad	-23086446726352906              # 0xffadfaffbfbfeff6
.LCPI1_300:
	.quad	-657527847707263490             # 0xf6dffde7ff7b3dfe
	.quad	-649802715509228673             # 0xf6fb6fdf7ffcfb7f
.LCPI1_301:
	.quad	-180430957634129985             # 0xfd7efaffffbbefbf
	.quad	-9155363479765257               # 0xffdf793ed3ffbef7
.LCPI1_302:
	.quad	-589971590117728293             # 0xf7cffff6ef75dfdb
	.quad	-2650378362262683657            # 0xdb37f6ebfcf37ff7
.LCPI1_303:
	.quad	-1801475653881563654            # 0xe6ffdf6ffadff5fa
	.quad	-293868950993906051             # 0xfbebf7befd7dd67d
.LCPI1_304:
	.quad	9200853884096475007             # 0x7fafffdbffd7ef7f
	.quad	9214065216243855103             # 0x7fdeef7ef77f6eff
.LCPI1_305:
	.quad	-2414573989768725505            # 0xde7db5bfcfeffbff
	.quad	-20899671673213953              # 0xffb5bfdbfdfeebff
.LCPI1_306:
	.quad	-3412888387616805               # 0xfff3dffeffff7fdb
	.quad	-662047149806127235             # 0xf6cfef9ffb3ef77d
.LCPI1_307:
	.quad	-1302103243639259266            # 0xededffffadff7f7e
	.quad	-578732662764601602             # 0xf7f7edb59ffffefe
.LCPI1_308:
	.quad	-71502688436245                 # 0xffffbef7fba7bfeb
	.quad	9187334432871153596             # 0x7f7ff7fd77ffffbc
.LCPI1_309:
	.quad	4611384477201842167             # 0x3ffeedbff65dbff7
	.quad	-4905554982307110929            # 0xbbebf7bbfd6fdfef
.LCPI1_310:
	.quad	-1152956768470237705            # 0xefffdfed7df2fdf7
	.quad	-5837826305522925573            # 0xaefbdfe7bedffffb
.LCPI1_311:
	.quad	-3745279639973                  # 0xfffffc97fbeffe5b
	.quad	-2597174652669333569            # 0xdbf4fb69effeefbf
.LCPI1_312:
	.quad	4457296950751739646             # 0x3ddb7ff5fffd3efe
	.quad	-45036305545430017              # 0xff5fffb7fdf7fbff
.LCPI1_313:
	.quad	-2348699225854318145            # 0xdf67be7f7eb7e9bf
	.quad	-81104445571631369              # 0xfedfdbefbbff76f7
.LCPI1_314:
	.quad	-13537193607825411              # 0xffcfe7fe7fbff7fd
	.quad	-450966893293998210             # 0xf9bdd7fff7bfef7e
.LCPI1_315:
	.quad	-1180224647152845089            # 0xef9effefbf4b3edf
	.quad	-141843477169329                # 0xffff7efe7dedfb4f
.LCPI1_316:
	.quad	5471803169652267838             # 0x4befbffdeffadb3e
	.quad	-9148280952855305               # 0xffdf7fafdb7fe4f7
.LCPI1_317:
	.quad	-9930010543141                  # 0xfffff6f7fd3fbbdb
	.quad	-1153027695559320132            # 0xefff9f6b7dffddbc
.LCPI1_318:
	.quad	-5207287069298163778            # 0xb7bbfffff6ff7fbe
	.quad	-109284996170197409             # 0xfe7bbddffffed65f
.LCPI1_319:
	.quad	-22803942029922379              # 0xffaefbef7fd3efb5
	.quad	9196314978624204791             # 0x7f9fdfbfb77feff7
.LCPI1_320:
	.quad	-901944781536561457             # 0xf37ba5fff97ef6cf
	.quad	-2454568449544819203            # 0xddef9effffffedfd
.LCPI1_321:
	.quad	-4613977406174167369            # 0xbff7dbfeb74f7eb7
	.quad	-288250184822030339             # 0xfbffedfbef3dfffd
.LCPI1_322:
	.quad	8934297088501706751             # 0x7bfcffddb5f36fff
	.quad	-316728690114602                # 0xfffedfefdaef7fd6
.LCPI1_323:
	.quad	-6958694931965345825            # 0x9f6dbfd3ffe4ffdf
	.quad	-2306133495031825409            # 0xdffef7cdffff7bff
.LCPI1_324:
	.quad	8500543742006787583             # 0x75f7ff7edbfbfdff
	.quad	-4503603926549765               # 0xffeffffeffbfbafb
.LCPI1_325:
	.quad	-36591841732306443              # 0xff7dffe9efde59f5
	.quad	-1317461874723274849            # 0xedb76f67b7ffbf9f
.LCPI1_326:
	.quad	-2320480807515325571            # 0xdfcbfeffffeffb7d
	.quad	-292734543117750345             # 0xfbefff7be7faefb7
.LCPI1_327:
	.quad	-1154047959654993933            # 0xeffbff7ebeffeff3
	.quad	-634454750085379                # 0xfffdbef77dfebefd
.LCPI1_328:
	.quad	-1153594955497734786            # 0xeffd9b7ffedffd7e
	.quad	4465171687380185087             # 0x3df779fdff6d6fff
.LCPI1_329:
	.quad	-6917760062522394757            # 0x9fff2ddffff7f77b
	.quad	-184969209204969473             # 0xfd6edb7bf6f3efff
.LCPI1_330:
	.quad	-18014982695307778              # 0xffbfff77fbcfb5fe
	.quad	-2346465570147273729            # 0xdf6fadfefdaff3ff
.LCPI1_331:
	.quad	-3458799904653054082            # 0xcfffdfcfedffef7e
	.quad	9004663780776345587             # 0x7cf6fdfff6fffff3
.LCPI1_332:
	.quad	-326106370157986049             # 0xfb796ffbefbdbeff
	.quad	6608960366434574270             # 0x5bb7be6ffff7dfbe
.LCPI1_333:
	.quad	-1369100888236359713            # 0xecfff9fef6ffffdf
	.quad	-36099614688018437              # 0xff7fbf9779fdfffb
.LCPI1_334:
	.quad	-2740792294289449553            # 0xd9f6bfedffbfddaf
	.quad	-577591634909610025             # 0xf7fbfb77dff9bfd7
.LCPI1_335:
	.quad	-81691083342849                 # 0xffffb5b3cffefbff
	.quad	-2344123606052635778            # 0xdf77ffffff9ffb7e
.LCPI1_336:
	.quad	7924787222069378974             # 0x6dfa7ffdbbffff9e
	.quad	-5265411656469061889            # 0xb6ed7ffeebf5deff
.LCPI1_337:
	.quad	8916276772735543679             # 0x7bbcfa7bfdf7e97f
	.quad	-19175767398156353              # 0xffbbdfbdbbeff7bf
.LCPI1_338:
	.quad	-1688884794687527               # 0xfff9fff7ddbeffd9
	.quad	9042937709688716287             # 0x7d7ef7ef77fafbff
.LCPI1_339:
	.quad	-4750837825537                  # 0xfffffbaddbffbfff
	.quad	-4613375985256505761            # 0xbff9fefbef77de5f
.LCPI1_340:
	.quad	-54115224279613458              # 0xff3fbe7d7fdf7fee
	.quad	-4701782200434033249            # 0xbebfe9fff3dffd9f
.LCPI1_341:
	.quad	-4656730812942656771            # 0xbf5ff7ff7fefdafd
	.quad	-2738835095153541651            # 0xd9fdb3fdeefffded
.LCPI1_342:
	.quad	8646576172948881394             # 0x77fecf37bff97ff2
	.quad	-2666139812542022947            # 0xdafff7f75fe7fadd
.LCPI1_343:
	.quad	-2326109844269961219            # 0xdfb7ff6bbfbfeffd
	.quad	-1128146310273033               # 0xfffbfdf4f7ebe7f7
.LCPI1_344:
	.quad	-76561198027391109              # 0xfeeffffefbffbf7b
	.quad	-18295899277001217              # 0xffbefff9febf7dff
.LCPI1_345:
	.quad	-11294458855293706              # 0xffd7dfbfdffffcf6
	.quad	-563091725094017                # 0xfffdffdefdbff37f
.LCPI1_346:
	.quad	-4553223679606977               # 0xffefd2ddfffe7f3f
	.quad	-245890390981611777             # 0xfc966bfdffdbeeff
.LCPI1_347:
	.quad	-580973186713273377             # 0xf7eff7f6fdedbbdf
	.quad	6863168071890829295             # 0x5f3edeffaedaffef
.LCPI1_348:
	.quad	-5909848615328846401            # 0xadfbfffefefd6dbf
	.quad	-73192565255439521              # 0xfefbf7bfebbffb5f
.LCPI1_349:
	.quad	-149190619802378753             # 0xfdedf7ebf6dbddff
	.quad	4035031750843284987             # 0x37ff4fffb66fbdfb
.LCPI1_350:
	.quad	-18744109768739                 # 0xffffeef3cbfedfdd
	.quad	-1193560571229278209            # 0xef6f9efbf5f76fff
.LCPI1_351:
	.quad	8059189324422184927             # 0x6fd7fdfdbbcdffdf
	.quad	-2310375350771329285            # 0xdfefe5dbff74d6fb
.LCPI1_352:
	.quad	9074704182337601391             # 0x7defd35fbdfbff6f
	.quad	-648518415078688777             # 0xf6ffffeffeef77f7
.LCPI1_353:
	.quad	-77687145112485927              # 0xfeebfff3fff4bfd9
	.quad	-3461025109761171587            # 0xcff7f7fffdfa5f7d
.LCPI1_354:
	.quad	-4620698234405390601            # 0xbfdffb6ff3fdf6f7
	.quad	-36188277779333121              # 0xff7f6ef3fdedffff
.LCPI1_355:
	.quad	-306561442633786377             # 0xfbbedffdfdfb5bf7
	.quad	-1801492730585550882            # 0xe6ffcfe7ffffefde
.LCPI1_356:
	.quad	-370491440519719303             # 0xfadbbfff6f7fd679
	.quad	-2618843191910670849            # 0xdba7fffdffb6ddff
.LCPI1_357:
	.quad	-1163054652087894534            # 0xefdbfff4bfef7dfa
	.quad	-613615486105551889             # 0xf77bfff769fffbef
.LCPI1_358:
	.quad	-2328365407680860161            # 0xdfaffbff77dfefff
	.quad	-316664726327301                # 0xfffedffebf796ffb
.LCPI1_359:
	.quad	-5136925112008965               # 0xffedbffe6b75fefb
	.quad	-1188959784951349778            # 0xef7ff75ffdbffdee
.LCPI1_360:
	.quad	-18052135704871745              # 0xffbfddad9fdfbcbf
	.quad	-4720565316822779921            # 0xbe7d2edadfbfb7ef
.LCPI1_361:
	.quad	-44051371917443                 # 0xffffd7ef7d9fff7d
	.quad	4536951663314593719             # 0x3ef67d7ffefbe7b7
.LCPI1_362:
	.quad	-873857761228760113             # 0xf3df6efefdbddbcf
	.quad	8069817201453923310             # 0x6ffdbffd2eff7bee
.LCPI1_363:
	.quad	-5188146844282177601            # 0xb7ffffeedfff37bf
	.quad	-2378043952358040579            # 0xdeff7d9fef6edbfd
.LCPI1_364:
	.quad	-2308939878609453187            # 0xdff4ff69e7bfff7d
	.quad	-153263164010533161             # 0xfddf7ff6dfffeed7
.LCPI1_365:
	.quad	-3242611525442603009            # 0xd2ffedff6967f7ff
	.quad	-144115206330056769             # 0xfdfffffbbff6ffbf
.LCPI1_366:
	.quad	-216207979372873741             # 0xfcffdffcffdff7f3
	.quad	-4972563625358139395            # 0xbafde7ba7f7fdffd
.LCPI1_367:
	.quad	9182557065313213823             # 0x7f6efeffe7bf5d7f
	.quad	8070432836981308927             # 0x6fffefe7ffeb3dff
.LCPI1_368:
	.quad	-2956052408804836385            # 0xd6f9fdfefbbffbdf
	.quad	9180266779776122679             # 0x7f66dbff3fdfff37
.LCPI1_369:
	.quad	-594900399836627521             # 0xf7be7d3cfefffdbf
	.quad	-289497014352233509             # 0xfbfb7fffcfffbbdb
.LCPI1_370:
	.quad	7779370134681935861             # 0x6bf5dfebadffdff5
	.quad	-75439692477108226              # 0xfef3fbffd7efeffe
.LCPI1_371:
	.quad	-5017159518509934849            # 0xba5f77fffdbed6ff
	.quad	9060666237439696885             # 0x7dbdf3effef7dff5
.LCPI1_372:
	.quad	-9152884689227786               # 0xffdf7b7ff76daff6
	.quad	-2928468974017513489            # 0xd75bfcfbdbeef7ef
.LCPI1_373:
	.quad	-162201124670538241             # 0xfdbfbeefbdd7fdff
	.quad	-1307490849239728454            # 0xeddadbfffffdfeba
.LCPI1_374:
	.quad	-4683743767902568451            # 0xbeffffdbcf37bffd
	.quad	-432921846066184722             # 0xf9fdf3dfedb7fdee
.LCPI1_375:
	.quad	-282025338601794                # 0xfffeff7fdbdffebe
	.quad	-4716939344102417               # 0xffef3df7f9f7bbef
.LCPI1_376:
	.quad	-1153204293843882059            # 0xeffefecdfffaefb5
	.quad	-92469280628670721              # 0xfeb77baddf7dfeff
.LCPI1_377:
	.quad	-18021688017029                 # 0xffffef9bffafff7b
	.quad	-2612967395593069571            # 0xdbbcdfff6fff5bfd
.LCPI1_378:
	.quad	-4611706360130748962            # 0xbfffed7fd3ff3dde
	.quad	-4662424359296696481            # 0xbf4bbdbf6ffdff5f
.LCPI1_379:
	.quad	9221049318255886207             # 0x7ff7bf7feeffff7f
	.quad	-9025342270477069               # 0xffdfef7fbffdecf3
.LCPI1_380:
	.quad	-299023182298352643             # 0xfbd9a7ffff7ff3fd
	.quad	-146472541177840769             # 0xfdf79ffff5befb7f
.LCPI1_381:
	.quad	-216173160082575713             # 0xfcffffa7ff4dee9f
	.quad	-6998593825237108753            # 0x9edffffeff7ff7ef
.LCPI1_382:
	.quad	9223327480410799103             # 0x7fffd779e4fbfbff
	.quad	8070116272046602199             # 0x6ffecffdfb6ff7d7
.LCPI1_383:
	.quad	-141974506110993                # 0xffff7edffbfeffef
	.quad	-3458836119553343491            # 0xcfffbedffdbb7ffd
.LCPI1_384:
	.quad	-4767066875657980737            # 0xbdd7f9eeffdff4bf
	.quad	-37163631004230689              # 0xff7bf7dfdf6ddbdf
.LCPI1_385:
	.quad	-20267857254547524              # 0xffb7fe7dbffbffbc
	.quad	-1801479433386743810            # 0xe6ffdbfffecfa7fe
.LCPI1_386:
	.quad	-2414144114644812801            # 0xde7f3cb7e9fefbff
	.quad	-18296509292610067              # 0xffbeff6bf6fbfded
.LCPI1_387:
	.quad	-595601340101853481             # 0xf7bbffbc9f7b7ed7
	.quad	-288248244055640065             # 0xfbffefbfcdeef7ff
.LCPI1_388:
	.quad	-38281784410506753              # 0xff77feeb7ed7f9ff
	.quad	-5920122559337103425            # 0xadd77fe5ffef7fbf
.LCPI1_389:
	.quad	-6922175839195375617            # 0x9fef7dbfdff7d7ff
	.quad	7741405047371594726             # 0x6b6efedff6fffbe6
.LCPI1_390:
	.quad	-1152941305481167361            # 0xefffedfdbfeb7dff
	.quad	-1144729077156867               # 0xfffbeedffdfdf3fd
.LCPI1_391:
	.quad	-324619882106781769             # 0xfb7eb7efe7feffb7
	.quad	-594492820453064769             # 0xf7bfefedf75fffbf
.LCPI1_392:
	.quad	-297378317761781813             # 0xfbdf7ffedde7dfcb
	.quad	-36029372815934531              # 0xff7fff79efd37bbd
.LCPI1_393:
	.quad	-4611866343704100934            # 0xbfff5bfebfefffba
	.quad	-324338481922900005             # 0xfb7fb7de7dfeffdb
.LCPI1_394:
	.quad	-2594144383341166593            # 0xdbffbf6d7edfffff
	.quad	2737889471381749495             # 0x25feeff7dffdbef7
.LCPI1_395:
	.quad	-1154764303254529               # 0xfffbe5bf7be7bbff
	.quad	-180781839282704897             # 0xfd7dbbdfffb66dff
.LCPI1_396:
	.quad	4529460072066971638             # 0x3edbdfeffbddf7f6
	.quad	-2315554188236515345            # 0xdfdd7fbbeffe97ef
.LCPI1_397:
	.quad	-454907561099953169             # 0xf9afd7fbbeff7bef
	.quad	-668785438026383393             # 0xf6b7ff2fff7bbfdf
.LCPI1_398:
	.quad	-4720353106277253123            # 0xbe7defdbfdeebffd
	.quad	-2310394990714429579            # 0xdfefd3ff379fdf75
.LCPI1_399:
	.quad	-171440320515670277             # 0xfd9eebefd37bfefb
	.quad	-4611835556576388097            # 0xbfff77feefbf9bff
.LCPI1_400:
	.quad	-2308940334576762905            # 0xdff4feffbdfaffe7
	.quad	-5332264712417741349            # 0xb5fffd7edffd75db
.LCPI1_401:
	.quad	-85568392924237089              # 0xfecfffffffbff2df
	.quad	9223011259329273775             # 0x7ffeb7dfefbfdfaf
.LCPI1_402:
	.quad	-158364169405186                # 0xffff6ff7f7effcfe
	.quad	-1128099576569875               # 0xfffbfdffd9779fed
.LCPI1_403:
	.quad	-3458764533164671123            # 0xcffffffb7effff6d
	.quad	4536919226597504991             # 0x3ef65fffbbfbf7df
.LCPI1_404:
	.quad	-4616198414693113857            # 0xbfeff7ffdf7edfff
	.quad	-293332119768831122             # 0xfbeddffdbff76b6e
.LCPI1_405:
	.quad	-1161946296049732106            # 0xefdfefffffdff5f6
	.quad	-40674234183401479              # 0xff6f7effdffcbff9
.LCPI1_406:
	.quad	-2630388134199795841            # 0xdb7efbeda79e5f7f
	.quad	-738878411625207809             # 0xf5bef9ffd6dfe7ff
.LCPI1_407:
	.quad	-869353057800421505             # 0xf3ef6ffffd67ff7f
	.quad	-282096690012171                # 0xfffeff6f3effdff5
.LCPI1_408:
	.quad	-75594177485772833              # 0xfef36f7effdf67df
	.quad	-4914555431986136323            # 0xbbcbfddf7f7ffafd
.LCPI1_409:
	.quad	6916680049642433973             # 0x5ffcfbdbe7f7edb5
	.quad	7925204495917382911             # 0x6dfbfb7fdf7bfcff
.LCPI1_410:
	.quad	-36029108941496353              # 0xff7fffb75ff7dfdf
	.quad	-2341876754185978385            # 0xdf7ffb7ff6fffdef
.LCPI1_411:
	.quad	-5919981711328151649            # 0xadd7ffffbb79f79f
	.quad	-2310416980072614273            # 0xdfefbfff6bbdb67f
.LCPI1_412:
	.quad	-39601079362049                 # 0xffffdbfba7bb5dff
	.quad	9222208676159290806             # 0x7ffbddedfafffdb6
.LCPI1_413:
	.quad	-1143492094527493               # 0xfffbefffffe6f7fb
	.quad	7890016207059804023             # 0x6d7ef7efeddfdf77
.LCPI1_414:
	.quad	-5190398570569809985            # 0xb7f7fffffe7dbfbf
	.quad	-14777865807593777              # 0xffcb7f9bfdfffecf
.LCPI1_415:
	.quad	6611247408300096509             # 0x5bbfde7d6df2fbfd
	.quad	-576467422943397893             # 0xf7fff9eededfb7fb
.LCPI1_416:
	.quad	-6917669765143199749            # 0x9fff7fffff2dfffb
	.quad	6770879860126707645             # 0x5df6ff5befb2efbd
.LCPI1_417:
	.quad	-5360409490854428682            # 0xb59bfff7fefd3ff6
	.quad	-72624134853502977              # 0xfefdfcbbefefd7ff
.LCPI1_418:
	.quad	-180250658144784449             # 0xfd7f9efb3ebfefbf
	.quad	-153157645799391234             # 0xfddfdfeebf7dfffe
.LCPI1_419:
	.quad	-72139095878402197              # 0xfeffb5dfdfbfff6b
	.quad	-432346802537103361             # 0xf9fffedfaeffffff
.LCPI1_420:
	.quad	8069304290300133375             # 0x6ffbed7fbfdfffff
	.quad	-4684376987035764737            # 0xbefdbff2fdb7f7ff
.LCPI1_421:
	.quad	8065629161915416446             # 0x6feedefd3dffff7e
	.quad	-605875170846181889             # 0xf7977fbdff7bf5ff
.LCPI1_422:
	.quad	-9711299290218517               # 0xffdd7f9fef7fbfeb
	.quad	9185082572757949950             # 0x7f77f7ef6dde5dfe
.LCPI1_423:
	.quad	-4683796424054276166            # 0xbeffcff7d7ffffba
	.quad	-4973111983165409285            # 0xbafbf4ffff2ff7fb
.LCPI1_424:
	.quad	-5145714420097105               # 0xffedb7ffffdfdfaf
	.quad	7493690154301390843             # 0x67feef7df7f9fffb
.LCPI1_425:
	.quad	-2603163342197498883            # 0xdbdfb4bb7fffdbfd
	.quad	-1170940372032521858            # 0xefbffbef7fd6797e
.LCPI1_426:
	.quad	-218466642685853961             # 0xfcf7d9bef76ffef7
	.quad	-648661300037034369             # 0xf6ff7dfbffbfde7f
.LCPI1_427:
	.quad	-1188955395628990994            # 0xef7ffb5df5bffdee
	.quad	9212956629491728286             # 0x7fdaff3dffef3f9e
.LCPI1_428:
	.quad	-4714740321371297               # 0xffef3ff7f9efbb5f
	.quad	-2342223650091963393            # 0xdf7ebffff7bfebff
.LCPI1_429:
	.quad	-648677303634762509             # 0xf6ff6f6ddefde4f3
	.quad	-333838157126696977             # 0xfb5df7f6fffdffef
.LCPI1_430:
	.quad	-2252899342614531               # 0xfff7fefffef7fffd
	.quad	-218426855108137025             # 0xfcf7fdeebbdfafbf
.LCPI1_431:
	.quad	-2311615445259520003            # 0xdfeb7dfffffff7fd
	.quad	-2619477071097503937            # 0xdba5bf7b7ff3df3f
.LCPI1_432:
	.quad	-576478345177628965             # 0xf7ffefffd6fb7edb
	.quad	-1768014999535665               # 0xfff9b7ffedfebfcf
.LCPI1_433:
	.quad	-1155776610994061442            # 0xeff5db4bbdfe7f7e
	.quad	9079256496390275006             # 0x7dffffadf3ffffbe
.LCPI1_434:
	.quad	-6998604816054749573            # 0x9edff5ffffb7f67b
	.quad	-166672785811997697             # 0xfdafdbfbfff37bff
.LCPI1_435:
	.quad	9214362045854515135             # 0x7fdffd75feffffbf
	.quad	-2346463366828065815            # 0xdf6faffffdbefbe9
.LCPI1_436:
	.quad	-436850263402484745             # 0xf9effefffddbebf7
	.quad	3960891407995615223             # 0x36f7e9bff779b7f7
.LCPI1_437:
	.quad	-4617325688453596161            # 0xbfebf6bfff6ffbff
	.quad	-1191492399352807937            # 0xef76f7f9bfff7dff
.LCPI1_438:
	.quad	-6431285987602731042            # 0xa6bf7b77fbfdefde
	.quad	-13584637969500165              # 0xffcfbcd7ff6cf7fb
.LCPI1_439:
	.quad	-2594354997785264705            # 0xdbfeffdfffbffdbf
	.quad	-18067490219261953              # 0xffbfcfb69f7f7fff
.LCPI1_440:
	.quad	-865817028403923203             # 0xf3fbfffffd7ff6fd
	.quad	-18049722468565507              # 0xffbfdfdf7ff77dfd
.LCPI1_441:
	.quad	3313521192318494395             # 0x2dfbfdf7f7df66bb
	.quad	-7503639116270543235            # 0x97ddb7facff7de7d
.LCPI1_442:
	.quad	9223370798561749350             # 0x7ffffedfaffbe966
	.quad	-3415908848500745               # 0xfff3dd3fbe7ffff7
.LCPI1_443:
	.quad	-4592660610301969               # 0xffefaeffdfbfbfef
	.quad	-1188963495899595780            # 0xef7ff3fff7ff7bfc
.LCPI1_444:
	.quad	-793060154256916993             # 0xf4fe7bfdd3fffdff
	.quad	-333829322416595205             # 0xfb5dfffffdbfdefb
.LCPI1_445:
	.quad	-3494864798441807938            # 0xcf7fbefb7edbdfbe
	.quad	-666673486635356673             # 0xf6bf7ffeffedadff
.LCPI1_446:
	.quad	-2311545076587703553            # 0xdfebbdfffbafd2ff
	.quad	-146367065199480969             # 0xfdf7ffedfff7ef77
.LCPI1_447:
	.quad	-1297036693900231169            # 0xedffffffb76dfdff
	.quad	-614199290240762145             # 0xf779ecffebe6fedf
.LCPI1_448:
	.quad	-1207040653544919044            # 0xef3fbaebb7ffeffc
	.quad	-4611971968762151201            # 0xbffefbedffdf7edf
.LCPI1_449:
	.quad	-2666131409235625985            # 0xdaffff9bebffb7ff
	.quad	-36065631904210953              # 0xff7fde7fb5bfdff7
.LCPI1_450:
	.quad	7472597131404769246             # 0x67b3ff7fdefbf7de
	.quad	-1196303010955411               # 0xfffbbff7fffcff6d
.LCPI1_451:
	.quad	-148935455912493251             # 0xfdeedffdefdfff3d
	.quad	-18155754548642629              # 0xffbf7f6ffb7fbcbb
.LCPI1_452:
	.quad	-5224880411381351553            # 0xb77d7ef2cdb7bb7f
	.quad	-2305948565587691089            # 0xdfff9fff3dd2f9af
.LCPI1_453:
	.quad	-1152922123620057697            # 0xefffff6fdfeffd9f
	.quad	-4715841883078951               # 0xffef3ef77fbdfed9
.LCPI1_454:
	.quad	8930638043740568959             # 0x7beffffbf6befd7f
	.quad	-594655505616617993             # 0xf7bf5bf7dffdbdf7
.LCPI1_455:
	.quad	-72620562077196323              # 0xfefdfffbc9ffdfdd
	.quad	-2342436474324025345            # 0xdf7dfe6ff6ff7fff
.LCPI1_456:
	.quad	-72376462274986021              # 0xfefeddfdb3ffffdb
	.quad	-4904578348048974083            # 0xbbef6ffa5f77fefd
.LCPI1_457:
	.quad	8917126711309463550             # 0x7bbfff7fbcbf6ffe
	.quad	-1731653951022956617            # 0xe7f7ede7ff5fffb7
.LCPI1_458:
	.quad	-6994093554737939491            # 0x9eeffcf7dffefbdd
	.quad	5764607513202524095             # 0x4ffffffdb5fbffbf
.LCPI1_459:
	.quad	-216172859960463433             # 0xfcffffeddff9efb7
	.quad	-5188868376786116641            # 0xb7fd6fb3ff67dfdf
.LCPI1_460:
	.quad	-3747031792381862467            # 0xcbffde6ffcfbddbd
	.quad	-3434908701706274               # 0xfff3cbf7feffb7de
.LCPI1_461:
	.quad	-36029076197221633              # 0xff7fffbeffaddaff
	.quad	-168885149239357955             # 0xfda7ffd9ffbfcdfd
.LCPI1_462:
	.quad	9077831847349579770             # 0x7dfaeff7ffffeffa
	.quad	-70405586962481                 # 0xffffbff76bffb7cf
.LCPI1_463:
	.quad	-4609291392648322               # 0xffef9fdfb7dffb7e
	.quad	-1304021931561285               # 0xfffb5dffbbfd6ebb
.LCPI1_464:
	.quad	-3251616798570840451            # 0xd2dfefbfdf7dfe7d
	.quad	7926335342964112766             # 0x6dffffffb7fffd7e
.LCPI1_465:
	.quad	-576513539089383689             # 0xf7ffcffd9e5fbef7
	.quad	-6918092137045166245            # 0x9ffdffdadffff75b
.LCPI1_466:
	.quad	-3458834893302141060            # 0xcfffbffd7fffef7c
	.quad	4593653473681078267             # 0x3fbfef7efffff7fb
.LCPI1_467:
	.quad	-5202784711302709541            # 0xb7cbfededff7fedb
	.quad	-290588287697946137             # 0xfbf79f7defdff9e7
.LCPI1_468:
	.quad	-1369096555540285958            # 0xecfffdefbfcf75fa
	.quad	-112591227916001537             # 0xfe6ffedfef3ddeff
.LCPI1_469:
	.quad	-291115494932029635             # 0xfbf5bfffeff6df3d
	.quad	9213199355139292918             # 0x7fdbdbfff7ef7ef6
.LCPI1_470:
	.quad	-45107775948210209              # 0xff5fbeb77dffbfdf
	.quad	-1317338077659664385            # 0xedb7dfff77ffefff
.LCPI1_471:
	.quad	-217443856220717090             # 0xfcfb7bf6ff5f7fde
	.quad	-5269211704151179541            # 0xb6dfffdf5fbcfeeb
.LCPI1_472:
	.quad	-202956798649991810             # 0xfd2ef3ddefb77d7e
	.quad	-1165306955025350913            # 0xefd3ff7f9b6bfeff
.LCPI1_473:
	.quad	-1199586546941953               # 0xfffbbcfb7dfdffff
	.quad	8894257274137083839             # 0x7b6ebfddf5dfffbf
.LCPI1_474:
	.quad	-4632374704630536269            # 0xbfb67fbfdffde7b3
	.quad	-590544534753133697             # 0xf7cdf6dfddfdbb7f
.LCPI1_475:
	.quad	8034131463085128679             # 0x6f7ef7ffbffa7be7
	.quad	-4755801208113987585            # 0xbdffffff9ffdffff
.LCPI1_476:
	.quad	-45248343818969121              # 0xff5f3edefbfedfdf
	.quad	-144401087294873681             # 0xfdfefbf9e69bdfaf
.LCPI1_477:
	.quad	-585942941789716997             # 0xf7de4fffb7f9fdfb
	.quad	-2314862303633811489            # 0xdfdff4ffdff6d7df
.LCPI1_478:
	.quad	-1173193337927210497            # 0xefb7fadffffe69ff
	.quad	-219552686226571342             # 0xfcf3fdfebffb7fb2
.LCPI1_479:
	.quad	-864832158001815553             # 0xf3ff7fbbfff79fff
	.quad	-450651479347564562             # 0xf9bef6ddfffbefee
.LCPI1_480:
	.quad	8070412804700504023             # 0x6fffddafdeefffd7
	.quad	-653024299645405201             # 0xf6effddbfdeff7ef
.LCPI1_481:
	.quad	-2308166354726879241            # 0xdff7beedf7fefff7
	.quad	-234187456048533509             # 0xfcbfffbfdf5feffb
.LCPI1_482:
	.quad	-4658419665227358357            # 0xbf59f7feef6ddf6b
	.quad	-324823294576533513             # 0xfb7dfeef3ffe5ff7
.LCPI1_483:
	.quad	-18039172484842053              # 0xffbfe977dbffbdbb
	.quad	-36037868330688673              # 0xff7ff7bfebafdf5f
.LCPI1_484:
	.quad	-288587322310795785             # 0xfbfebb5bfefbddf7
	.quad	-1307222572831735809            # 0xeddbcffef7fdffff
.LCPI1_485:
	.quad	-288256798858218529             # 0xfbffe7f7fbf6f3df
	.quad	-690600543443                   # 0xffffff5f34fffb2d
.LCPI1_486:
	.quad	4539346604605275807             # 0x3efeffafb7df7e9f
	.quad	-4612266560835356929            # 0xbffdefffeffef6ff
.LCPI1_487:
	.quad	8011049407946382326             # 0x6f2cf6fdfebf5bf6
	.quad	-603763825119857153             # 0xf79efffffb7ff5ff
.LCPI1_488:
	.quad	-4612829650744248321            # 0xbffbefdf59fff7ff
	.quad	9223297129097461751             # 0x7fffbbdf2dbbfff7
.LCPI1_489:
	.quad	8500539623191738047             # 0x75f7fbbfdf79f6bf
	.quad	-324408879088673025             # 0xfb7f77d7dfefdeff
.LCPI1_490:
	.quad	-36600569103679554              # 0xff7df7f9efff7fbe
	.quad	-5333425345808844801            # 0xb5fbdde7daffb7ff
.LCPI1_491:
	.quad	-4909135799856006305            # 0xbbdf3effef6dfb5f
	.quad	-313281857385398273             # 0xfba6ffcf7ff7ffff
.LCPI1_492:
	.quad	9079093526725132247             # 0x7dff6b759effffd7
	.quad	-576531157596774657             # 0xf7ffbff77d7fdeff
.LCPI1_493:
	.quad	-164944338516776579             # 0xfdb5ffff7efee97d
	.quad	-5773900596385941574            # 0xafdefbffbffff7ba
.LCPI1_494:
	.quad	-576472022364875025             # 0xf7fff5bffbfd96ef
	.quad	8033823599812409839             # 0x6f7ddfffbef7f9ef
.LCPI1_495:
	.quad	-587719752446937665             # 0xf7d7ffffbfeb75bf
	.quad	-649785125470470195             # 0xf6fb7fdeffffffcd
.LCPI1_496:
	.quad	9216616498498371519             # 0x7fe7ffdfa7ffffbf
	.quad	-218428980578107905             # 0xfcf7fbffdbfdbdff
.LCPI1_497:
	.quad	-36609361443307921              # 0xff7deffacfb7be6f
	.quad	8070371365260623805             # 0x6fffb7ff7fd7ffbd
.LCPI1_498:
	.quad	-1821881972273709573            # 0xe6b75fffbbeffdfb
	.quad	-2631448128574792705            # 0xdb7b37de7b6edbff
.LCPI1_499:
	.quad	-2455095323920695811            # 0xddedbfcf7ffbfdfd
	.quad	-4621819667899482118            # 0xbfdbff7fdeeffffa
.LCPI1_500:
	.quad	-685110093389300737             # 0xf67dfffffb7efbff
	.quad	-54118169555538433              # 0xff3fbbcfbfbf6dff
.LCPI1_501:
	.quad	-1153104062326145282            # 0xefff59f6f7fd7efe
	.quad	-4616843007210053781            # 0xbfedadbefb7f9f6b
.LCPI1_502:
	.quad	-306289304916459545             # 0xfbbfd77ffdf3ffe7
	.quad	8043428659536311551             # 0x6f9fffbffbdbb4ff
.LCPI1_503:
	.quad	-40620381236625409              # 0xff6faffa7dbfffff
	.quad	9074423187216785399             # 0x7deed3cf779fdff7
.LCPI1_504:
	.quad	-2691678016376897               # 0xfff66feedffbefbf
	.quad	-4647715142137676033            # 0xbf7fffb3efadfeff
.LCPI1_505:
	.quad	-3459328572949332058            # 0xcffdfefdbffeffa6
	.quad	-6360263550494212129            # 0xa7bbcdffbaed7fdf
.LCPI1_506:
	.quad	-13721939847676163              # 0xffcf3ff7e9bffefd
	.quad	-5141402407141385               # 0xffedbbebf7dffff7
.LCPI1_507:
	.quad	4592404981432188894             # 0x3fbb7fffbeffffde
	.quad	-2315978307441066241            # 0xdfdbfdfffd76feff
.LCPI1_508:
	.quad	-2306406577676522515            # 0xdffdff6ffdf76bed
	.quad	9221078176417834999             # 0x7ff7d9beff7de7f7
.LCPI1_509:
	.quad	-590112433096949763             # 0xf7cf7fde5fb6fffd
	.quad	-1297640324872802441            # 0xedfddaffedbbef77
.LCPI1_510:
	.quad	8070113427244170751             # 0x6ffecd679fffbdff
	.quad	-2883008548471570469            # 0xd7fd7effffefffdb
.LCPI1_511:
	.quad	-36028797289508930              # 0xff7fffffefdfcfbe
	.quad	8502514058855690175             # 0x75feff7cffdbafbf
.LCPI1_512:
	.quad	-563259461091329                # 0xfffdffb7efe7bfff
	.quad	-1479784329952396355            # 0xeb76bffdfcff7bbd
.LCPI1_513:
	.quad	-1821710447387230209            # 0xe6b7fbfffbddbfff
	.quad	-4616198416334130177            # 0xbfeff7ff7daef3ff
.LCPI1_514:
	.quad	6627038055177838583             # 0x5bf7f7ffe7dedff7
	.quad	4611681572590681598             # 0x3ffffbf4df7b7dfe
.LCPI1_515:
	.quad	-587235984073032721             # 0xf7d9b7fbd9fffbef
	.quad	-2288633486835714               # 0xfff7de7ffdfefffe
.LCPI1_516:
	.quad	-2252144620077385               # 0xfff7ffafb7effeb7
	.quad	-2319371540405750037            # 0xdfcfefdf5ff6f6eb
.LCPI1_517:
	.quad	-288243587773137553             # 0xfbfff3fbedff7d6f
	.quad	9205357628587212255             # 0x7fbffffdba5f7ddf
.LCPI1_518:
	.quad	-73835539304302755              # 0xfef9aef7dbf7b75d
	.quad	5620209760470027069             # 0x4dfefeffffffcb3d
.LCPI1_519:
	.quad	-4623250686031710209            # 0xbfd6e9feff7fb7ff
	.quad	-4940590903649633281            # 0xbb6f7ebfdf6ffbff
.LCPI1_520:
	.quad	-1152992983617175554            # 0xefffbefd7efafffe
	.quad	-3395944876001349               # 0xfff3ef67f7fd37bb
.LCPI1_521:
	.quad	-2598577158940008611            # 0xdbefffd77fefdf5d
	.quad	9223301109629845375             # 0x7fffbf7df7f3ff7f
.LCPI1_522:
	.quad	-1166311792316674               # 0xfffbdb3edfebeefe
	.quad	-360360572418524177             # 0xfaffbdf7f9effbef
.LCPI1_523:
	.quad	-40638638031142913              # 0xff6f9f5fbfff7fff
	.quad	-72057977366153473              # 0xfeffffa6bfdb76ff
.LCPI1_524:
	.quad	-5260769670520185105            # 0xb6fdfddb7f7edeef
	.quad	9222482504970140031             # 0x7ffcd6f9b7fff97f
.LCPI1_525:
	.quad	-83334219654496514              # 0xfed7eff7ffdbfefe
	.quad	-36029920756891649              # 0xff7ffefa5bffffff
.LCPI1_526:
	.quad	-1153207515104687169            # 0xeffefbdffddfcbbf
	.quad	-4613957686961113093            # 0xbff7ededf3fff7fb
.LCPI1_527:
	.quad	-301890983493763125             # 0xfbcf77bffff5ffcb
	.quad	-36064532237648403              # 0xff7fdf7fbefbfded
.LCPI1_528:
	.quad	-236456641412747333             # 0xfcb7efeffbcfafbb
	.quad	-81275934254106629              # 0xfedf3ff7e9fef7fb
.LCPI1_529:
	.quad	-18023263463280667              # 0xffbff7eff793efe5
	.quad	-594901801213641225             # 0xf7be7bf6b66bbdf7
.LCPI1_530:
	.quad	-586594128533914881             # 0xf7dbffbf7d67faff
	.quad	-1159717036258034689            # 0xefe7db7ffddefbff
.LCPI1_531:
	.quad	-1162245638091440130            # 0xefdedfbfffcffffe
	.quad	-4684306717046095879            # 0xbefdffdbff7dbff9
.LCPI1_532:
	.quad	8899107348807643006             # 0x7b7ffafbf7bf6f7e
	.quad	9203947170480223927             # 0x7fbafd2fdbef76b7
.LCPI1_533:
	.quad	-4648368099366733957            # 0xbf7dadd77bfcf77b
	.quad	-432346869901864961             # 0xf9fffecfffbf4fff
.LCPI1_534:
	.quad	-27021670803982349              # 0xff9fffeefe7db7f3
	.quad	-900719930079469841             # 0xf37ffffeed7f9eef
.LCPI1_535:
	.quad	8935141643522563517             # 0x7bfffffbfff65dbd
	.quad	-1245403631610544130            # 0xeeb76ffed7df3ffe
.LCPI1_536:
	.quad	-6922041425777526787            # 0x9feff7ff6ffdf7fd
	.quad	-20899534354256529              # 0xffb5bffbf6d7ed6f
.LCPI1_537:
	.quad	-5909989352808776229            # 0xadfb7ffeff7dfddb
	.quad	-2387470753064355841            # 0xdeddffffdbf6f7ff
.LCPI1_538:
	.quad	-1155736393979265169            # 0xeff5ffdf7edfff6f
	.quad	9222206245090360991             # 0x7ffbdbb7f3fffe9f
.LCPI1_539:
	.quad	-2594293442578221201            # 0xdbff37dbeffff76f
	.quad	9223085588268146686             # 0x7ffefb79fdbf5ffe
.LCPI1_540:
	.quad	-18298656643874858              # 0xffbefd77fedfffd6
	.quad	-4612885590445851655            # 0xbffbbcfedff4fbf9
.LCPI1_541:
	.quad	-1155214203280163970            # 0xeff7dacd7dfffb7e
	.quad	-155374187815635269             # 0xfdd7ffffd7fbf6bb
.LCPI1_542:
	.quad	-324277057428127777             # 0xfb7fefbbff2fffdf
	.quad	-290821096342099                # 0xfffef77fefdbfdad
.LCPI1_543:
	.quad	-4828986934367883329            # 0xbcfbfdf7dfffefbf
	.quad	-4503606104489985               # 0xffeffffe7deeffff
.LCPI1_544:
	.quad	-2312880588027928595            # 0xdfe6ff5bfeb2dfed
	.quad	-595776985473777926             # 0xf7bb5ffcff7b7efa
.LCPI1_545:
	.quad	-9588067845284097               # 0xffddefb3fdffdeff
	.quad	-41131700427751617              # 0xff6ddeefb6feff3f
.LCPI1_546:
	.quad	-4764953542501077025            # 0xbddf7bffb7fbefdf
	.quad	-4655613553017091               # 0xffef75be7ff5fefd
.LCPI1_547:
	.quad	9187307505707117567             # 0x7f7fdf7ffff3ebff
	.quad	-1173205579666325801            # 0xefb7efbdbf7b7ed7
.LCPI1_548:
	.quad	-2954431863923490833            # 0xd6ffbfdf7dbebfef
	.quad	-328762774140559372             # 0xfb6fffffaffadff4
.LCPI1_549:
	.quad	-720723352802558029             # 0xf5ff79eddedfffb3
	.quad	-4621845523857408309            # 0xbfdbe7fbcfbffecb
.LCPI1_550:
	.quad	-18401454520574017              # 0xffbe9ff97ff35fbf
	.quad	-72198332751020066              # 0xfeff7fffb6ffffde
.LCPI1_551:
	.quad	-6923158668946966821            # 0x9febffdefdbff6db
	.quad	6628660315983966079             # 0x5bfdbb6feef3ef7f
.LCPI1_552:
	.quad	9222206553983025143             # 0x7ffbdbffdf6ffff7
	.quad	-36609391504393219              # 0xff7deff3cfeffbfd
.LCPI1_553:
	.quad	-1209784965886181889            # 0xef35fafbb5befdff
	.quad	-153404244559530082             # 0xfddeffa6fffdf79e
.LCPI1_554:
	.quad	-369367737220751381             # 0xfadfbdffff779feb
	.quad	-166924015762932249             # 0xfdaef77df7f7fde7
.LCPI1_555:
	.quad	-92342243542729473              # 0xfeb7ef37ffdf7cff
	.quad	-612507143655934099             # 0xf77fefff7fffb76d
.LCPI1_556:
	.quad	-288551442275435521             # 0xfbfedbfdf7befbff
	.quad	4591258668636045307             # 0x3fb76d6efffbfffb
.LCPI1_557:
	.quad	-589972654992138641             # 0xf7cffefeffffde6f
	.quad	-1441187640690606145            # 0xebffdf79fdf3ffbf
.LCPI1_558:
	.quad	-5909883796076894721            # 0xadfbdfffd6ffe5ff
	.quad	-288239447122641159             # 0xfbfff7bffffffef9
.LCPI1_559:
	.quad	-70437598199835                 # 0xffffbfeff7faffe5
	.quad	-4613093393998860585            # 0xbffaffffd6ff2ed7
.LCPI1_560:
	.quad	-2604208684155281409            # 0xdbdbfdffdbefdfff
	.quad	-1157431153712993474            # 0xefeffa7f7ef76b3e
.LCPI1_561:
	.quad	9148919670990569406             # 0x7ef77df7bbf9ffbe
	.quad	-28881583210497                 # 0xffffe5bb7b7dffff
.LCPI1_562:
	.quad	9200289851813658598             # 0x7fadfedffffbffe6
	.quad	-2251903966937153               # 0xfff7ffe7bffb7fbf
.LCPI1_563:
	.quad	-5260345239702011937            # 0xb6ff7fdfffa4ffdf
	.quad	6917454252090523517             # 0x5fffbbfdf5deff7d
.LCPI1_564:
	.quad	9150891946747602943             # 0x7efe7fbdf7dfa7ff
	.quad	-288794739451387905             # 0xfbfdfeb6edff9fff
.LCPI1_565:
	.quad	-2630419409742635521            # 0xdb7edf7bbfff5dff
	.quad	-1873498030192199717            # 0xe5ffff77befff7db
.LCPI1_566:
	.quad	-4719781519114241027            # 0xbe7ff7b6ffbdfbfd
	.quad	-162415468203213385             # 0xfdbefbfdffb7fdb7
.LCPI1_567:
	.quad	-154248297036386305             # 0xfddbfffdb7efefff
	.quad	-613616565920737299             # 0xf77bfefbffffd7ed
.LCPI1_568:
	.quad	-2330683745161515153            # 0xdfa7bf7b75deef6f
	.quad	-4622100605518741609            # 0xbfdafffcfbefff97
.LCPI1_569:
	.quad	-81293492521273729              # 0xfedf2fffcfb7f67f
	.quad	-40541209919529097              # 0xff6ff7fbfffb5f77
.LCPI1_570:
	.quad	-75488113293541473              # 0xfef3cff5fe5fbf9f
	.quad	-4683813998427127987            # 0xbeffbffbfdbfbf4d
.LCPI1_571:
	.quad	-3603161247744533633            # 0xcdfeffef7fbbdb7f
	.quad	-650775373266551365             # 0xf6f7fb3ef7dffdbb
.LCPI1_572:
	.quad	-45204221556949253              # 0xff5f66ffffbffefb
	.quad	-3765018634617881603            # 0xcbbff77feedffbfd
.LCPI1_573:
	.quad	-648536489491202113             # 0xf6ffef7fb7ff7fbf
	.quad	-4905546306431296771            # 0xbbebff9fffeedafd
.LCPI1_574:
	.quad	-2265002550034449               # 0xfff7f3fdff96ffef
	.quad	-4620728964695068962            # 0xbfdfdf7cfffdeede
.LCPI1_575:
	.quad	-613142661443904561             # 0xf77dadff7bff9bcf
	.quad	-3458800885767868995            # 0xcfffdeeb7effedbd
.LCPI1_576:
	.quad	9077950627882954750             # 0x7dfb5bffbf7f6ffe
	.quad	-5192677035666917377            # 0xb7efe7bf7fbeb7ff
.LCPI1_577:
	.quad	-144688181021810817             # 0xfdfdf6ddaeff5f7f
	.quad	-18296423243057729              # 0xffbeff7fffeff5bf
.LCPI1_578:
	.quad	-2346586512163880977            # 0xdf6f3ffffbbfbfef
	.quad	-43065810387738625              # 0xff66ffdfa5dfdfff
.LCPI1_579:
	.quad	-153123212098540037             # 0xfddfff3ff7ffedfb
	.quad	-869203799632396433             # 0xf3eff7bfdd7dbf6f
.LCPI1_580:
	.quad	-633336179786755                # 0xfffdbffbedfafbfd
	.quad	-794891933045527042             # 0xf4f7f9ff97ff6dfe
.LCPI1_581:
	.quad	-7205830872329625633            # 0x9bffbeffef3fdfdf
	.quad	9223015766884868077             # 0x7ffebbf96effdfed
.LCPI1_582:
	.quad	7466822757807668731             # 0x679f7bbcbfedbdfb
	.quad	-576531398141741057             # 0xf7ffbfbf7be6f7ff
.LCPI1_583:
	.quad	-2308169714348065812            # 0xdff7bbdfbef7fbec
	.quad	7854275546804254458             # 0x6cfffdfeff4df6fa
.LCPI1_584:
	.quad	-7494552868151124353            # 0x97fdffdfcf779e7f
	.quad	8934291188190543871             # 0x7bfcfa7fefffffff
.LCPI1_585:
	.quad	-82191526425296937              # 0xfedbff3dffdf7fd7
	.quad	-2382407505742466085            # 0xdeeffcfefdfef3db
.LCPI1_586:
	.quad	-144151687819694081             # 0xfdffdecdbdbbefff
	.quad	-2393444160901129               # 0xfff77f2cdaffeff7
.LCPI1_587:
	.quad	-50665530469671041              # 0xff4bfff7edff9f7f
	.quad	-2596606728875843658            # 0xdbf6ffeffff75fb6
.LCPI1_588:
	.quad	-1152941847318923269            # 0xefffed7f97df77fb
	.quad	-2413938200693178371            # 0xde7ff7fefdeffffd
.LCPI1_589:
	.quad	-2617440208645259337            # 0xdbacfbff7edfffb7
	.quad	-145664133830803721             # 0xfdfa7f3df67ffef7
.LCPI1_590:
	.quad	-2667257978855358769            # 0xdafbfefffdfffecf
	.quad	-1193459072398066692            # 0xef6ffb4bffbefbfc
.LCPI1_591:
	.quad	9222098801304535031             # 0x7ffb79ffbf4ffff7
	.quad	-4693386467492241429            # 0xbeddbddfdb7fdfeb
.LCPI1_592:
	.quad	-1297639775250949138            # 0xedfddb7fe5bfdbee
	.quad	-587772528014133322             # 0xf7d7cffffafbf7b6
.LCPI1_593:
	.quad	-1354737913495573               # 0xfffb2fdf7fe6ffeb
	.quad	9216509976195792892             # 0x7fe79efdfffe7ffc
.LCPI1_594:
	.quad	-5188148970299343681            # 0xb7fffdffdf7fbcbf
	.quad	-582231127042303013             # 0xf7eb7fdfef77dbdb
.LCPI1_595:
	.quad	-3479884020410482689            # 0xcfb4f7ebafdfffff
	.quad	-720617756247982177             # 0xf5ffd9f7fbffff9f
.LCPI1_596:
	.quad	-4645443146353665               # 0xffef7efe7b6ff3ff
	.quad	-436858580587516481             # 0xf9eff76f7effedbf
.LCPI1_597:
	.quad	7899313458636647890             # 0x6d9fffbcff7fedd2
	.quad	-405886916417897473             # 0xfa5dffffffeebbff
.LCPI1_598:
	.quad	-2251801982145026               # 0xfff7ffff7ebfedfe
	.quad	8067917217525628927             # 0x6ff6fff6b3df7fff
.LCPI1_599:
	.quad	-4688883011134038161            # 0xbeedbdbe7ffddf6f
	.quad	-288269959963615361             # 0xfbffdbffacf3df7f
.LCPI1_600:
	.quad	-577604244414138409             # 0xf7fbeffffeeff7d7
	.quad	-72075186224120997              # 0xfeffeffffffdbb5b
.LCPI1_601:
	.quad	-391495261717633                # 0xfffe9befe7fe7b7f
	.quad	9148620295192444599             # 0x7ef66dafdfdffeb7
.LCPI1_602:
	.quad	-289919277565214849             # 0xfbf9fff3ff2fff7f
	.quad	-36663286129500171              # 0xff7dbeef7df3dff5
.LCPI1_603:
	.quad	-5188181989614682630            # 0xb7ffdff7f6effdfa
	.quad	-7205973121373839365            # 0x9bff3d9fff7fdffb
.LCPI1_604:
	.quad	-2326672303793897985            # 0xdfb5ffddef9ffdff
	.quad	-6341367377003151618            # 0xa7feeff7f779fefe
.LCPI1_605:
	.quad	-2342997708630917379            # 0xdf7bffff6b7ffefd
	.quad	-36029554007474706              # 0xff7fff4fbff7fdee
.LCPI1_606:
	.quad	-144258206326231298             # 0xfdff7decf7fd6efe
	.quad	-3251598950356623365            # 0xd2dffffb7bf5dffb
.LCPI1_607:
	.quad	-306245892460020745             # 0xfbbffefbbdff7bf7
	.quad	-10151311450571522              # 0xffdbef6f9efbfcfe
.LCPI1_608:
	.quad	-4612321725702473877            # 0xbffdbdd3ddaff76b
	.quad	-468387761817195530             # 0xf97ff3cfefbeebf6
.LCPI1_609:
	.quad	-155374187144282369             # 0xfdd7fffffffffeff
	.quad	-5197866728667242513            # 0xb7dd77bfeff79fef
.LCPI1_610:
	.quad	-18930317733658625              # 0xffbcbef9efffffff
	.quad	-2272575652353                  # 0xfffffdeedfef7dff
.LCPI1_611:
	.quad	-2310487793039574023            # 0xdfef7f97fdfffbf9
	.quad	9078965890224947199             # 0x7dfef75feebeffff
.LCPI1_612:
	.quad	4593671343823486419             # 0x3fbfffbfb77d7dd3
	.quad	-73755239992330497              # 0xfef9f7ffffeef6ff
.LCPI1_613:
	.quad	-3476819044540612801            # 0xcfbfdb7ffdd7ff3f
	.quad	-5773619429648633862            # 0xafdffbb7fb7feffa
.LCPI1_614:
	.quad	-2891548612599425029            # 0xd7df27db5f3cd7fb
	.quad	-1585831118333804689            # 0xe9fdfefffdf3ff6f
.LCPI1_615:
	.quad	-1731636874241638657            # 0xe7f7fd6ffedbfeff
	.quad	-37718798467334179              # 0xff79fef3dfffffdd
.LCPI1_616:
	.quad	8932608179718320127             # 0x7bf6ffcffddbefff
	.quad	9196347892105739959             # 0x7f9ffdaefbdffeb7
.LCPI1_617:
	.quad	-5188287787702943745            # 0xb7ff7fbeed77ffff
	.quad	-1170937005866024961            # 0xefbffeff3efeffff
.LCPI1_618:
	.quad	-1153066641282701826            # 0xefff7bffbbfde5fe
	.quad	-81137395688418437              # 0xfedfbdf7effdd37b
.LCPI1_619:
	.quad	8914303645330173951             # 0x7bb5f7ef77dfefff
	.quad	-9007238044733957               # 0xffdffff6f7efadfb
.LCPI1_620:
	.quad	-2305845242900275233            # 0xdffffdf7ede79fdf
	.quad	-36099854031716994              # 0xff7fbf5fbffefd7e
.LCPI1_621:
	.quad	-1155456978430198021            # 0xeff6fdffff6bfefb
	.quad	-2886974631128858769            # 0xd7ef67de6bffff6f
.LCPI1_622:
	.quad	-436858510911733762             # 0xf9eff77fb7fffffe
	.quad	-92605577659695106              # 0xfeb6ffb7bf5fbffe
.LCPI1_623:
	.quad	-1129340276375715               # 0xfffbfcdef9feff5d
	.quad	-3463308804404281546            # 0xcfefdafde5ffff36
.LCPI1_624:
	.quad	4521455687454010879             # 0x3ebf6ffdf65dadff
	.quad	-13510803714482177              # 0xffcffffedff7dfff
.LCPI1_625:
	.quad	-288346443364794898             # 0xfbff966ffefe7dee
	.quad	-4758071217113694273            # 0xbdf7ef6ff7ed7fbf
.LCPI1_626:
	.quad	-325393871653568513             # 0xfb7bf7ff6bffffff
	.quad	-2450802639668515395            # 0xddfcfffbeff7edbd
.LCPI1_627:
	.quad	4440513455508668415             # 0x3d9fdf75ffefbfff
	.quad	-396881968002779185             # 0xfa7dfdf3ef6fb7cf
.LCPI1_628:
	.quad	-198228822163194945             # 0xfd3fbfefbeb7fbbf
	.quad	-1226109499677605929            # 0xeefbfbe7fffbffd7
.LCPI1_629:
	.quad	-4972536957906339985            # 0xbafdfffb7f7db76f
	.quad	-180149499849605257             # 0xfd7ffafbfeffff77
.LCPI1_630:
	.quad	9214081161920231422             # 0x7fdefdff9bdfb7fe
	.quad	-2955065045249163267            # 0xd6fd7fff79bffffd
.LCPI1_631:
	.quad	-2312633732747833353            # 0xdfe7dfdf77facff7
	.quad	-747897442891989505             # 0xf59eef3cfbfffdff
.LCPI1_632:
	.quad	-576488514980937857             # 0xf7ffe6bfff77ff7f
	.quad	-326007664156676                # 0xfffed77f6cfbdffc
.LCPI1_633:
	.quad	-140772923965477                # 0xffff7ff7bfdf7fdb
	.quad	-397523068974596097             # 0xfa7bb6dffbbeffff
.LCPI1_634:
	.quad	-162142780859613185             # 0xfdbff3fff7f7ffff
	.quad	-5765069327582630409            # 0xaffe5bfdbfefedf7
.LCPI1_635:
	.quad	-2630120893444063491            # 0xdb7feefb7deefefd
	.quad	-2849937396601987               # 0xfff5dfff3dd7eb7d
.LCPI1_636:
	.quad	-1154087059949127757            # 0xeffbdbeeffdb77b3
	.quad	-864693740403449859             # 0xf3fffd9fdbbf9ffd
.LCPI1_637:
	.quad	8051591021206437887             # 0x6fbcff5fe7bbffff
	.quad	8043428933927958495             # 0x6f9fffffdedff7df
.LCPI1_638:
	.quad	-4524632082876433               # 0xffefecdefff5f7ef
	.quad	-328771569964856385             # 0xfb6ff7ffbfff4bbf
.LCPI1_639:
	.quad	-72216199213367553              # 0xfeff6fbfdadbbeff
	.quad	-9570441803875585               # 0xffddffbbdfefbaff
.LCPI1_640:
	.quad	-8814348764746                  # 0xfffff7fbbfdf79b6
	.quad	-5766879148553296485            # 0xaff7edf7f7dfa59b
.LCPI1_641:
	.quad	-76711002225247489              # 0xfeef77bff9fffaff
	.quad	-288516395340148889             # 0xfbfefbddf7dfcf67
.LCPI1_642:
	.quad	-5188605001865499173            # 0xb7fe5f3dbffdeddb
	.quad	-586611443684673537             # 0xf7dbeffffdfef7ff
.LCPI1_643:
	.quad	-1153554978061681361            # 0xeffdbfdbf7bffd2f
	.quad	-3522904042143753               # 0xfff37beffbfd7ff7
.LCPI1_644:
	.quad	-2306423551361564929            # 0xdffdefffff7fbeff
	.quad	-36354261474344985              # 0xff7ed7fde6bfffe7
.LCPI1_645:
	.quad	9133262659770122175             # 0x7ebfddffbbefffbf
	.quad	-577729612348915713             # 0xf7fb7dfa7fb7ffff
.LCPI1_646:
	.quad	-2332142545667211               # 0xfff7b6edbffffb75
	.quad	-81352869793778185              # 0xfedef9fef67bb5f7
.LCPI1_647:
	.quad	-288258327800054785             # 0xfbffe693ffedfbff
	.quad	6629017090310798847             # 0x5bfeffebedf7fdff
.LCPI1_648:
	.quad	-4611826825241296961            # 0xbfff7fefdbdfffbf
	.quad	-2203326619813                  # 0xfffffdfeff7fdf5b
.LCPI1_649:
	.quad	-146437496224878667             # 0xfdf7bfdf7fb7efb5
	.quad	8070410125187165950             # 0x6fffdb3fff7f2efe
.LCPI1_650:
	.quad	-8830721212691                  # 0xfffff7f7efffbeed
	.quad	-146970843114176577             # 0xfdf5dacbffd6ffbf
.LCPI1_651:
	.quad	4611679412759033758             # 0x3ffff9fdff7bf79e
	.quad	-4611697312849725569            # 0xbffff5ba4ff7f77f
.LCPI1_652:
	.quad	8011622114878291447             # 0x6f2effddb7fbfdf7
	.quad	-594476053302640681             # 0xf7bfff2ddf6b7fd7
.LCPI1_653:
	.quad	-1760318187390997               # 0xfff9befffbbfb7eb
	.quad	8898826990654520127             # 0x7b7efbffff9efb3f
.LCPI1_654:
	.quad	-648799830453261125             # 0xf6fefffddf7fecbb
	.quad	-4647733696664698881            # 0xbf7feed3dfafffff
.LCPI1_655:
	.quad	-1153801672271626243            # 0xeffcdf7dfeff7ffd
	.quad	-20304170330357762              # 0xffb7dd76f3fffffe
.LCPI1_656:
	.quad	-10212538910376193              # 0xffdbb7bffdfdfeff
	.quad	-9348000518667                  # 0xfffff77f7fbfedf5
.LCPI1_657:
	.quad	-1148200585134598               # 0xfffbebb7b7fdfdfa
	.quad	-72075220583784483              # 0xfeffeff7fffedfdd
.LCPI1_658:
	.quad	-36104251040137364              # 0xff7fbb5ffddeff6c
	.quad	-1154328888282716161            # 0xeffafffdf3efe7ff
.LCPI1_659:
	.quad	-563229395329169                # 0xfffdffbeeff6df6f
	.quad	-40533523136020993              # 0xff6ffef9b7fb7dff
.LCPI1_660:
	.quad	-605751742631543041             # 0xf797efffde5f7eff
	.quad	-36116794457458709              # 0xff7faff77feff7eb
.LCPI1_661:
	.quad	6874428163240153084             # 0x5f66dffdffdecffc
	.quad	9151312239364386559             # 0x7efffdfef7ffaeff
.LCPI1_662:
	.quad	-612631386892813601             # 0xf77f7effddffbadf
	.quad	-18121061086863369              # 0xffbf9efdaef6dff7
.LCPI1_663:
	.quad	-164539717299214341             # 0xfdb76fffb6efe7fb
	.quad	-1276810360979459               # 0xfffb76bf6bfcfffd
.LCPI1_664:
	.quad	8790744377023266293             # 0x79feff6f7fbbfdf5
	.quad	8501524777431711711             # 0x75fb7bbdf7ffbfdf
.LCPI1_665:
	.quad	-2424071296129706003            # 0xde5bf7ffdbf7d7ed
	.quad	-148619406182716548             # 0xfdefff6fffbfeb7c
.LCPI1_666:
	.quad	-81066993527029834              # 0xfedffdffb7cfffb6
	.quad	-4899927668872448275            # 0xbbfff5beffbff6ed
.LCPI1_667:
	.quad	-1158027775404151961            # 0xefeddbdfaeffeb67
	.quad	9223336508875865590             # 0x7fffdfafff6ffdf6
.LCPI1_668:
	.quad	-2305985997270811777            # 0xdfff7df3ffa5fb7f
	.quad	8790744989058355199             # 0x79fefffdffde4fff
.LCPI1_669:
	.quad	-576461031543554057             # 0xf7ffffbefbfdbff7
	.quad	-4612268072672297009            # 0xbffdee9fef7dffcf
.LCPI1_670:
	.quad	-1459447756426380817            # 0xebbeffff7df6f9ef
	.quad	-234191617878169637             # 0xfcbffbf6deff67db
.LCPI1_671:
	.quad	-77766395890379009              # 0xfeebb7dffd7dd6ff
	.quad	6624513576883121599             # 0x5beeffffffdeedbf
.LCPI1_672:
	.quad	-5908863453975806209            # 0xadff7ffebf7bfeff
	.quad	-2882868913514218545            # 0xd7fdfdff4bf7fbcf
.LCPI1_673:
	.quad	-2341876223742906897            # 0xdf7ffbfb77deedef
	.quad	-4615098971239487789            # 0xbff3dfefffffe6d3
.LCPI1_674:
	.quad	-653602628303339793             # 0xf6edefdf5bb7beef
	.quad	-144124551125794962             # 0xfdfff77bfebbff6e
.LCPI1_675:
	.quad	-2517471608842                  # 0xfffffdb5daffbff6
	.quad	-4647925960942813189            # 0xbf7f3ff6dbaffffb
.LCPI1_676:
	.quad	8070374665943478269             # 0x6fffbaffffdf6ffd
	.quad	-4710785555489757197            # 0xbe9fed7efffde7f3
.LCPI1_677:
	.quad	-864691128467849217             # 0xf3ffffffff3dffff
	.quad	-1173785838633418753            # 0xefb5dfffaddeffff
.LCPI1_678:
	.quad	-723991574341517317             # 0xf5f3dd7fbeff7ffb
	.quad	-2341884175751119139            # 0xdf7ff4bfff3efedd
.LCPI1_679:
	.quad	-18652192565371011              # 0xffbdbbedffdbdf7d
	.quad	3872673454053371647             # 0x35be7ffcf7efaeff
.LCPI1_680:
	.quad	-288248262812501025             # 0xfbffefbb6feffbdf
	.quad	-3461052666422034497            # 0xcff7deeff4feffbf
.LCPI1_681:
	.quad	-1162069750654730274            # 0xefdf7fb7fbff7fde
	.quad	-589971570512898311             # 0xf7cffffb7fffd6f9
.LCPI1_682:
	.quad	-36038702560449545              # 0xff7ff6fdafb7ebf7
	.quad	-19140848250798338              # 0xffbbff7ffb4fbefe
.LCPI1_683:
	.quad	-36172850830262307              # 0xff7f7cfbdbbfbfdd
	.quad	9216506684103188287             # 0x7fe79bff7ffbdf3f
.LCPI1_684:
	.quad	-4620693217682395137            # 0xbfdffffffffbefff
	.quad	-289497323325767681             # 0xfbfb7fb7dfbdbfff
.LCPI1_685:
	.quad	-1155252538012958722            # 0xeff7b7effdde7ffe
	.quad	-72061992218820645              # 0xfefffbfff7fd7fdb
.LCPI1_686:
	.quad	-45108736116720005              # 0xff5fbdd7ef7efe7b
	.quad	-162767311920169169             # 0xfdbdbbfdfff3ff2f
.LCPI1_687:
	.quad	-1738442520494608898            # 0xe7dfcfbcff7bedfe
	.quad	-2305870499261975809            # 0xdfffe6ff796ff2ff
.LCPI1_688:
	.quad	-162767923985879042             # 0xfdbdbb6f7dfe6ffe
	.quad	9149871500224888827             # 0x7efadfa6bf5ffffb
.LCPI1_689:
	.quad	-7570553584958521605            # 0x96effd9fff7cbefb
	.quad	-289088546055918097             # 0xfbfcf37fbfb3edef
.LCPI1_690:
	.quad	-82190796815859746              # 0xfedbffe7dffbffde
	.quad	-576479444036242481             # 0xf7ffeefffde7b3cf
.LCPI1_691:
	.quad	-2774297634943578123            # 0xd97fb6fff7fb4ff5
	.quad	-11281272768823809              # 0xffd7ebbdfffffdff
.LCPI1_692:
	.quad	-292742811332117633             # 0xfbeff7f6cffffb7f
	.quad	-2814758628099075               # 0xfff5fffdefd7fbfd
.LCPI1_693:
	.quad	-4613942839594719810            # 0xbff7fb6edfffe5be
	.quad	-36037597474062595              # 0xff7ff7fefbfffefd
.LCPI1_694:
	.quad	6916683915516174143             # 0x5ffcff5fffffdf3f
	.quad	-5910306007879287301            # 0xadfa5ffffe7f7dfb
.LCPI1_695:
	.quad	-865818128418949137             # 0xf3fbfeffdf7eb7ef
	.quad	-1155244240240903681            # 0xeff7bf7bf79ff9ff
.LCPI1_696:
	.quad	-4683750312756936745            # 0xbefff9e7f77f7fd7
	.quad	-72708505202608131              # 0xfefdafffef3fb7fd
.LCPI1_697:
	.quad	9218304370162794343             # 0x7fedfefbe6fbff67
	.quad	-1152924263136886826            # 0xeffffd7dbacbffd6
.LCPI1_698:
	.quad	-5228749557596160023            # 0xb76fbffaffffffe9
	.quad	-2742807691853561988            # 0xd9ef96efafdbff7c
.LCPI1_699:
	.quad	-81368533381955593              # 0xfedeebbfffdfbff7
	.quad	-1284263950033185               # 0xfffb6ff7ff75dedf
.LCPI1_700:
	.quad	7782210242235793325             # 0x6bfff6fbbfdeffad
	.quad	-4702886664158070785            # 0xbebbfd7ef3efb7ff
.LCPI1_701:
	.quad	-7214837283177900165            # 0x9bdfbfb77fefd77b
	.quad	-24778808809226777              # 0xffa7f7cdfef7fde7
.LCPI1_702:
	.quad	-1325342528618401805            # 0xed9b6ffdfffb6ff3
	.quad	-405889410450587665             # 0xfa5dfdbb4fffffef
.LCPI1_703:
	.quad	-24774333570843714              # 0xffa7fbdff7f67bbe
	.quad	-4755807807869026306            # 0xbdfff9feffeffffe
.LCPI1_704:
	.quad	-2386989173078362513            # 0xdedfb5fe6ff5f66f
	.quad	-1188954709336531473            # 0xef7ffbfdbff7ddef
.LCPI1_705:
	.quad	-19801476991265                 # 0xffffedfd9bff76df
	.quad	-2305913412855006353            # 0xdfffbff7dff7fb6f
.LCPI1_706:
	.quad	-36028937949937857              # 0xff7fffdf2fdbff3f
	.quad	-145135536964105                # 0xffff7bffffdffdf7
.LCPI1_707:
	.quad	-158381222928433                # 0xffff6ff3ff77dfcf
	.quad	-2306513232418046979            # 0xdffd9e6f7ffbfbfd
.LCPI1_708:
	.quad	-72057594256183301              # 0xfefffffff2fdaffb
	.quad	-6917532328327711777            # 0x9ffffcff7fbef3df
.LCPI1_709:
	.quad	-151433537491370513             # 0xfde5fffffebefdef
	.quad	4025914050830008311             # 0x37deeb7fbff9fff7
.LCPI1_710:
	.quad	-108086666001932547             # 0xfe7fffbffbff9efd
	.quad	-3476849848146759812            # 0xcfbfbf7bf7d76f7c
.LCPI1_711:
	.quad	-4837048587448782945            # 0xbcdf59efffcf6f9f
	.quad	-288951660343134337             # 0xfbfd6ffeeffcf77f
.LCPI1_712:
	.quad	-432346690583007241             # 0xf9fffef9bffbeff7
	.quad	-596744654551025921             # 0xf7b7efe5fbdf76ff
.LCPI1_713:
	.quad	-4720353128287896593            # 0xbe7defd6ddfefbef
	.quad	-2594108570144378884            # 0xdbffdfffe7bf6ffc
.LCPI1_714:
	.quad	-164383662866186757             # 0xfdb7fdedf7fbbdfb
	.quad	-4647723628992923025            # 0xbf7ff7fbefaffa6f
.LCPI1_715:
	.quad	9187342690029657590             # 0x7f7fff7ffcffddf6
	.quad	-1297213164299094017            # 0xedff5f7ffffdf7ff
.LCPI1_716:
	.quad	-1206443504110631               # 0xfffbb6befb7ef3d9
	.quad	-2828702119633089               # 0xfff5f34f76fbdf3f
.LCPI1_717:
	.quad	-18018797094064897              # 0xffbffbffdfedacff
	.quad	-288233674686685475             # 0xfbfffcfffffe9edd
.LCPI1_718:
	.quad	-54606233528697986              # 0xff3dffeb7ffffb7e
	.quad	-1164321558993700937            # 0xefd77fb5ffd9f7b7
.LCPI1_719:
	.quad	-7205847381978384657            # 0x9bffaffbfb7ff6ef
	.quad	-288803780072833545             # 0xfbfdf67dfef7fdf7
.LCPI1_720:
	.quad	8070151465068363454             # 0x6ffeeffffeff7ebe
	.quad	-2922836314931347585            # 0xd76fffdb7fe7bf7f
.LCPI1_721:
	.quad	8899042288345186302             # 0x7b7fbfcfe5fe7ffe
	.quad	4035225197387691767             # 0x37ffffeffeffb6f7
.LCPI1_722:
	.quad	-4899917545638731813            # 0xbbfffef3ff7fdfdb
	.quad	-344842040507170841             # 0xfb36dffdbff2ffe7
.LCPI1_723:
	.quad	-1284853444247586               # 0xfffb6f6ebeddffde
	.quad	-45117497606676741              # 0xff5fb5dffdffdefb
.LCPI1_724:
	.quad	-2306128882505364097            # 0xdffefbffefffcd7f
	.quad	8070023327277645275             # 0x6ffe7b75977ffddb
.LCPI1_725:
	.quad	-2351515897632392193            # 0xdf5dbcbffdeffbff
	.quad	-1159786873464821265            # 0xefe79bfbbff7e9ef
.LCPI1_726:
	.quad	-147668819330203969             # 0xfdf35ffdbf6bfebf
	.quad	-2954370156279253011            # 0xd6fff7feebf5b7ed
.LCPI1_727:
	.quad	8790462835424231414             # 0x79fdff5ffcbbfff6
	.quad	-2252110664073801               # 0xfff7ffb79fdf7db7
.LCPI1_728:
	.quad	-109214507200432177             # 0xfe7bfdfbfdffb7cf
	.quad	-2310395056206381057            # 0xdfefd3eff7ffffff
.LCPI1_729:
	.quad	-596733827011860485             # 0xf7b7f9bef77fa7fb
	.quad	-5485401938332746805            # 0xb3dfefffff6ffbcb
.LCPI1_730:
	.quad	-2305843567559704595            # 0xdfffff7dfffbffed
	.quad	-6487437536876691970            # 0xa5f7fdee9fedfdfe
.LCPI1_731:
	.quad	-1138132314628103               # 0xfffbf4dfebaddff9
	.quad	-2470510474794893393            # 0xddb6fbcffff7ffaf
.LCPI1_732:
	.quad	-1297041949740536066            # 0xedfffb37feef6efe
	.quad	-972777794457575457             # 0xf27fffbffbf7dfdf
.LCPI1_733:
	.quad	-146367058790581315             # 0xfdf7ffef7df7fbbd
	.quad	-1163199747901620513            # 0xefdb7bfdff7ffedf
.LCPI1_734:
	.quad	-4980983404620163335            # 0xbadffdfbdf7fd6f9
	.quad	9038724314693631999             # 0x7d6fffdfffffffff
.LCPI1_735:
	.quad	-1226122590737941025            # 0xeefbeffffffbbddf
	.quad	-649645382271387811             # 0xf6fbfef77fbdb75d
.LCPI1_736:
	.quad	-326511119283790978             # 0xfb77ffddefdfdb7e
	.quad	-18032270405403137              # 0xffbfefbedffdfdff
.LCPI1_737:
	.quad	-585609788835644565             # 0xf7df7effef75bb6b
	.quad	9187308034791989246             # 0x7f7fdffb2fde5ffe
.LCPI1_738:
	.quad	-216227792189149285             # 0xfcffcdf7f7ffaf9b
	.quad	-72270933653454885              # 0xfeff3df7ffffffdb
.LCPI1_739:
	.quad	6917520136919842685             # 0x5ffff7e9f7b7ff7d
	.quad	3440590956689747967             # 0x2fbf6f3efee9efff
.LCPI1_740:
	.quad	-585488034926503937             # 0xf7dfedbbf9f6d7ff
	.quad	-2308169713311584385            # 0xdff7bbdffcbf6f7f
.LCPI1_741:
	.quad	8067072797085269754             # 0x6ff3fff7bf7bfefa
	.quad	-6922050496815587329            # 0x9fefefbf6bfd9fff
.LCPI1_742:
	.quad	-36592434171646097              # 0xff7dff5fffbb6f6f
	.quad	9222245578584358591             # 0x7ffbff7dfeeffebf
.LCPI1_743:
	.quad	-2382492303463940097            # 0xdeefafdf7bedffff
	.quad	-77477282819                    # 0xffffffedf5fe7bfd
.LCPI1_744:
	.quad	8412723480618860535             # 0x74bfff6edfdffff7
	.quad	-5485384763026965633            # 0xb3dfff9eef6ffb7f
.LCPI1_745:
	.quad	-2614383643630043137            # 0xdbb7d7ed7ed6ffff
	.quad	-74158442497                    # 0xffffffeebbcff7ff
.LCPI1_746:
	.quad	-2378042477065012227            # 0xdeff7ef76dbffbfd
	.quad	6917524612145413503             # 0x5ffffbfbeff2fd7f
.LCPI1_747:
	.quad	-1179943115272749829            # 0xef9ffffcfefffcfb
	.quad	-82851499754913793              # 0xfed9a6fffbffffff
.LCPI1_748:
	.quad	-36064189720069651              # 0xff7fdfcf7e9f79ed
	.quad	-1163628175687717               # 0xfffbddafb3efffdb
.LCPI1_749:
	.quad	-288329333012447239             # 0xfbffa5ffcf77bff9
	.quad	9218585862470066175             # 0x7feefeffeff75fff
.LCPI1_750:
	.quad	-1227547557885132873            # 0xeef6dffffb5bbfb7
	.quad	-2347501312750453765            # 0xdf6bfffe5fbefbfb
.LCPI1_751:
	.quad	7782171765739880309             # 0x6bffd3fd3dffff75
	.quad	-216173606755895305             # 0xfcffff3fff7ff7f7
.LCPI1_752:
	.quad	-5482587378077016321            # 0xb3e9efd3dfaddeff
	.quad	8914593987134480383             # 0x7bb6ffffeffbdfff
.LCPI1_753:
	.quad	-1891551979983898689            # 0xe5bfdb7efedf77bf
	.quad	-369439347268789249             # 0xfadf7cdefbfddbff
.LCPI1_754:
	.quad	-2467972612995752457            # 0xddbffffbfefeddf7
	.quad	-18190320387014690              # 0xffbf5ffffefb3fde
.LCPI1_755:
	.quad	-82833083144864771              # 0xfed9b7bfef7ffbfd
	.quad	-5070948837953665               # 0xffedfbffb7d6ef7f
.LCPI1_756:
	.quad	9151312195473897403             # 0x7efffdf4bfebf7bb
	.quad	-4621335610035536001            # 0xbfddb7bf5ff7ff7f
.LCPI1_757:
	.quad	-604207560263178                # 0xfffdda79f6fff9f6
	.quad	-9290942511352577               # 0xffdefdefdffb74ff
.LCPI1_758:
	.quad	-577657059681111057             # 0xf7fbbff6fbb5f3ef
	.quad	-114351356781571                # 0xffff97ff7fffdbfd
.LCPI1_759:
	.quad	9205357561019104763             # 0x7fbfffedfefffdfb
	.quad	-36187264174784545              # 0xff7f6fdffd77ffdf
.LCPI1_760:
	.quad	5727936611207838703             # 0x4f7db7fffeff7bef
	.quad	-5764610272888246785            # 0xaffffd7fbfedadff
.LCPI1_761:
	.quad	-289499350122367011             # 0xfbfb7ddff93ff7dd
	.quad	9198034341143969279             # 0x7fa5fb7fffbafdff
.LCPI1_762:
	.quad	-5764664702621745413            # 0xafffcbfed6ff7efb
	.quad	-612490958676705283             # 0xf77ffeb7dbefbffd
.LCPI1_763:
	.quad	-144683155624857794             # 0xfdfdfb6fbfff6f3e
	.quad	-4611692649992423490            # 0xbffff9f7f7ebf7be
.LCPI1_764:
	.quad	-4692821317903188113            # 0xbedfbfdfffffff6f
	.quad	-4785778996065793               # 0xffeeff5bfef749ff
.LCPI1_765:
	.quad	9223318633153804287             # 0x7fffcf6dfb5fb7ff
	.quad	-653024321085786135             # 0xf6effdd6fffdb7e9
.LCPI1_766:
	.quad	-4825964842321025               # 0xffeedacf7fdffb7f
	.quad	-81067550871390209              # 0xfedffd7df37ff7ff
.LCPI1_767:
	.quad	-4621828188560039937            # 0xbfdbf7bffffddfff
	.quad	-291046245834163713             # 0xfbf5fefb3fd7f9ff
.LCPI1_768:
	.quad	-595636853785362437             # 0xf7bbdf6ff2fdfffb
	.quad	-289498115206217859             # 0xfbfb7eff7ffcff7d
.LCPI1_769:
	.quad	9223090559594004327             # 0x7ffeffff77dbff67
	.quad	-4630021517282935074            # 0xbfbedbf5ffef7ede
.LCPI1_770:
	.quad	-2379037498276323587            # 0xdefbf5ffffe7defd
	.quad	-3495461816111240273            # 0xcf7d9fff7cbf6baf
.LCPI1_771:
	.quad	-2252078997045325               # 0xfff7ffbeff5fffb3
	.quad	-292945105642455299             # 0xfbef3ffa7f7dfefd
.LCPI1_772:
	.quad	8052434475574885743             # 0x6fbffe7dedbffd6f
	.quad	9223371727606644151             # 0x7fffffb7ff5ffdb7
.LCPI1_773:
	.quad	-4611689506482488327            # 0xbffffcd3dfb6fbf9
	.quad	-2341943420785827970            # 0xdf7fbeddefff5f7e
.LCPI1_774:
	.quad	-225462281062989825             # 0xfcdeff3ffafdbfff
	.quad	-5192650787004629013            # 0xb7efff9efdefbfeb
.LCPI1_775:
	.quad	-2287554343477329               # 0xfff7df7b3ff3dfaf
	.quad	-666677920116248582             # 0xf6bf7bf6bfdfeffa
.LCPI1_776:
	.quad	-76561470694949123              # 0xfeefffbf7fbefefd
	.quad	-432345710682775553             # 0xf9ffffdde696dfff
.LCPI1_777:
	.quad	3440745712289001215             # 0x2fbffbfed76f2eff
	.quad	-108086410385293329             # 0xfe7ffffb7fefffef
.LCPI1_778:
	.quad	-1153555373062885441            # 0xeffdbf7fffd7efbf
	.quad	-1308298166735474945            # 0xedd7fdbfbf6feeff
.LCPI1_779:
	.quad	-563369249687557                # 0xfffdff9e5ffeb7fb
	.quad	7777712141192101751             # 0x6beffbfbfcff7f77
.LCPI1_780:
	.quad	8644377905053302519             # 0x77f6ffe79eeffef7
	.quad	-6990713642576513063            # 0x9efbfefaffbff7d9
.LCPI1_781:
	.quad	9218506618444935167             # 0x7feeb6ed7fff6fff
	.quad	8565688152927238143             # 0x76df6ffdfbfff7ff
.LCPI1_782:
	.quad	-5630603345657873               # 0xffebfefeffb5ffef
	.quad	-2594083284227228691            # 0xdbfff6ff3ddb7bed
.LCPI1_783:
	.quad	-5764607527329333825            # 0xaffffffefffdfdbf
	.quad	-2378042442399155363            # 0xdeff7eff7ffefb5d
.LCPI1_784:
	.quad	-2326712633270801               # 0xfff7bbddffffddef
	.quad	-422530846703649                # 0xfffe7fb5def9bfdf
.LCPI1_785:
	.quad	-72075495503587361              # 0xfeffefb7fd7f97df
	.quad	-3607383990899671617            # 0xcdefff5f7dfe7dbf
.LCPI1_786:
	.quad	-1225014321671733505            # 0xeeffdff6fffd7eff
	.quad	-13581185615659137              # 0xffcfbffbcfbfff7f
.LCPI1_787:
	.quad	8912619127076014590             # 0x7baffbdfffb7c9fe
	.quad	-19142575889860641              # 0xffbbfdedbbffb7df
.LCPI1_788:
	.quad	-582865427468140675             # 0xf7e93efb5be7bf7d
	.quad	-2598894754758725633            # 0xdbeedefd75faefff
.LCPI1_789:
	.quad	-4758056034277523777            # 0xbdf7fd3eff7bfebf
	.quad	-585485715542901137             # 0xf7dfefd7fffffe6f
.LCPI1_790:
	.quad	-1443975443849150467            # 0xebf5f7fbfcfbfffd
	.quad	-4685995480999662145            # 0xbef7ffefffededbf
.LCPI1_791:
	.quad	-4900058266005997569            # 0xbbff7ef7fbfef7ff
	.quad	6894940643443605309             # 0x5fafbffbf7dbff3d
.LCPI1_792:
	.quad	4602661188323504122             # 0x3fdfeff6ff7feffa
	.quad	-586673033583796241             # 0xf7dbb7fbf9efdfef
.LCPI1_793:
	.quad	-18014398528389267              # 0xffbffffffedf7f6d
	.quad	-72379029399011333              # 0xfefedba7ff7bfffb
.LCPI1_794:
	.quad	-3171123889103192193            # 0xd3fde79fcb3fbf7f
	.quad	-26039037954                    # 0xfffffff9eff3cffe
.LCPI1_795:
	.quad	-1162210213753798689            # 0xefdefff7dedfbfdf
	.quad	-7566047378277401781            # 0x96fffffefffffb4b
.LCPI1_796:
	.quad	-1153274456433590337            # 0xeffebefdffbe7fbf
	.quad	-740987355860566285             # 0xf5b77becfedffef3
.LCPI1_797:
	.quad	-618119203475562625             # 0xf76bffdbfffddf7f
	.quad	-35253091565636                 # 0xffffdfefffffffbc
.LCPI1_798:
	.quad	-18034846851958881              # 0xffbfed66ffcf779f
	.quad	-5840644425657505               # 0xffeb3ff6ffbfd35f
.LCPI1_799:
	.quad	-2306125051531362881            # 0xdffeff7be7d7fdbf
	.quad	-6359083499563122697            # 0xa7bfff3fbf7dfff7
.LCPI1_800:
	.quad	-2666139810661401603            # 0xdafff7f7cffffbfd
	.quad	-150905772060967427             # 0xfde7dffff5bffdfd
.LCPI1_801:
	.quad	-145386567258607689             # 0xfdfb7baff76fefb7
	.quad	-2377902819522404611            # 0xdefffdfbfbf79efd
.LCPI1_802:
	.quad	-1355597231738069129            # 0xed2ff37fffbfdf77
	.quad	-666832370437195842             # 0xf6beef7dfb5bf7be
.LCPI1_803:
	.quad	-230902307881985                # 0xffff2dfeddf5fbff
	.quad	8070441725417484279             # 0x6ffff7fd7fffeff7
.LCPI1_804:
	.quad	4539610831532324799             # 0x3effefffd7fff7bf
	.quad	-4900630132514373797            # 0xbbfd76dbefe7bf5b
.LCPI1_805:
	.quad	-2633198475849760772            # 0xdb74ffefffdffffc
	.quad	-178228395266114                # 0xffff5de6f7cfafbe
.LCPI1_806:
	.quad	-4647717463302144165            # 0xbf7ffd977f7eff5b
	.quad	-9348130804291                  # 0xfffff77f77fbedbd
.LCPI1_807:
	.quad	-9007199816941606               # 0xffdfffffde7d7fda
	.quad	-10777415659831297              # 0xffd9b5ff5fffbfff
.LCPI1_808:
	.quad	-6795139717038081               # 0xffe7dbdb3ef77fff
	.quad	-2537678274035969               # 0xfff6fbfebbebfeff
.LCPI1_809:
	.quad	-2306065114857605393            # 0xdfff35fefffdf6ef
	.quad	-54887776285626393              # 0xff3cffdbb7fbefe7
.LCPI1_810:
	.quad	-1749932197970706729            # 0xe7b6fdeffeeffed7
	.quad	-5630739236473875               # 0xffebfedf5bfcb3ed
.LCPI1_811:
	.quad	9216546266114940861             # 0x7fe7bfff67bbdfbd
	.quad	-4613955694096290305            # 0xbff7efbdf3ffedff
.LCPI1_812:
	.quad	-4613516860476882949            # 0xbff97edbddfffffb
	.quad	-1189513329174118420            # 0xef7dffedeefbffec
.LCPI1_813:
	.quad	-4614101096791540322            # 0xbff76b7fbffffd9e
	.quad	-2341873182836927493            # 0xdf7ffebf7bfdd3fb
.LCPI1_814:
	.quad	8768503320244383717             # 0x79affb4feeffefe5
	.quad	-720858244285726986             # 0xf5feff3effeffef6
.LCPI1_815:
	.quad	-577042394768285953             # 0xf7fdeeffcf7edeff
	.quad	-3476779066949403137            # 0xcfbfffdbfff77dff
.LCPI1_816:
	.quad	-4613234143684624417            # 0xbffa7ffcfff97fdf
	.quad	-2306405963470995589            # 0xdffdfffeff77ff7b
.LCPI1_817:
	.quad	-473160691105408009             # 0xf96efedbbcfbdbf7
	.quad	-1226141084942631425            # 0xeefbdf2dfb7b7dff
.LCPI1_818:
	.quad	-4647732426994419713            # 0xbf7feffb7deef7ff
	.quad	-2344136801266016329            # 0xdf77f3ffbf9e5fb7
.LCPI1_819:
	.quad	-4622945567455315973            # 0xbfd7ff7ff3dbf7fb
	.quad	-4611826777931670801            # 0xbfff7ffadfbf9aef
.LCPI1_820:
	.quad	-324857318536184345             # 0xfb7ddffd6df6fde7
	.quad	-5782800597635827717            # 0xafbf5d7ebafff7fb
.LCPI1_821:
	.quad	-2315986042970243489            # 0xdfdbf6f6ebfefe5f
	.quad	-291335397393302209             # 0xfbf4f7ffe7dffd3f
.LCPI1_822:
	.quad	-4612987849472622597            # 0xbffb5ffdd6fdbffb
	.quad	-36593980893822977              # 0xff7dfdf7dfe7ffff
.LCPI1_823:
	.quad	-3602884168698074113            # 0xcdfffbeffddf6bff
	.quad	9141845448610019287             # 0x7ede5bfffbebf7d7
.LCPI1_824:
	.quad	-3184185676186781953            # 0xd3cf7fff7ffff6ff
	.quad	7921830095008820222             # 0x6deffe7fefffebfe
.LCPI1_825:
	.quad	-648837239082632001             # 0xf6feddf7ff6f3cbf
	.quad	-77124281062917157              # 0xfeedffdfffaffbdb
.LCPI1_826:
	.quad	8788765876680392638             # 0x79f7f7fffd9bffbe
	.quad	9196068070089424831             # 0x7f9eff2fd7fdffbf
.LCPI1_827:
	.quad	-5084438119727265               # 0xffedefbafffdbf5f
	.quad	-20380547583648257              # 0xffb797fffcf2ddff
.LCPI1_828:
	.quad	-72075221657468962              # 0xfeffeff7bfffbfde
	.quad	-117102425063695363             # 0xfe5ff7f6ffbddbfd
.LCPI1_829:
	.quad	-86167782019                    # 0xffffffebeffffd7d
	.quad	9059971371341151998             # 0x7dbb7bf5dfff7efe
.LCPI1_830:
	.quad	-81699486379811841              # 0xfeddbebfffffdbff
	.quad	-70526586327553                 # 0xffffbfdb3fdfedff
.LCPI1_831:
	.quad	-154283476039761921             # 0xfddbdffef7efffff
	.quad	-2598576985601540375            # 0xdbefffffdbb6fee9
.LCPI1_832:
	.quad	9218296553708150775             # 0x7fedf7dffdfb5ff7
	.quad	9202804502485253535             # 0x7fb6edefbbffbd9f
.LCPI1_833:
	.quad	-109231017559654533             # 0xfe7beef7dfe6ff7b
	.quad	-148658438841336969             # 0xfdefdbefffff7b77
.LCPI1_834:
	.quad	-603627485686546945             # 0xf79f7bfffafdbdff
	.quad	-581123781116829973             # 0xf7ef6effffffdeeb
.LCPI1_835:
	.quad	8069878707817775103             # 0x6ffdf7edbff77fff
	.quad	-1874645341166403649            # 0xe5fbebfe97ef7fbf
.LCPI1_836:
	.quad	-4971974160491356549            # 0xbaffffd7fb7dde7b
	.quad	-144748669986472451             # 0xfdfdbfd9ffbefdfd
.LCPI1_837:
	.quad	8627735252006858719             # 0x77bbdf7ffffbefdf
	.quad	-874264595828113409             # 0xf3ddfcfb6df6ffff
.LCPI1_838:
	.quad	-2344124294314950723            # 0xdf77ff5fbffe7fbd
	.quad	9067993099476532950             # 0x7dd7fbadfffdfed6
.LCPI1_839:
	.quad	-9572369714718727               # 0xffddfdfaff7ed7f9
	.quad	-1237084839938                  # 0xfffffedff7ff5ffe
.LCPI1_840:
	.quad	-1228358997397211169            # 0xeef3fdffff7bf7df
	.quad	-40603899261896865              # 0xff6fbef7ffffb75f
.LCPI1_841:
	.quad	-1155529548738135106            # 0xeff6bbff67fefbbe
	.quad	-9291492275653121               # 0xffdefd6fdf79f5ff
.LCPI1_842:
	.quad	-10133103456683041              # 0xffdbfffefffdfbdf
	.quad	-1441195930213679194            # 0xebffd7efefdfffa6
.LCPI1_843:
	.quad	-649683828820021761             # 0xf6fbdbfff6ddedff
	.quad	-4612820714439837955            # 0xbffbf7ffff3ff6fd
.LCPI1_844:
	.quad	-162204372857004041             # 0xfdbfbbfb76d7dff7
	.quad	4611404500499951103             # 0x3ffefff5ffefedff
.LCPI1_845:
	.quad	-37156071952883729              # 0xff7bfebfd9ffdfef
	.quad	-3465520051778551811            # 0xcfe7ffdfbfbefffd
.LCPI1_846:
	.quad	9221115456741408766             # 0x7ff7fba6ffef7ffe
	.quad	-4612260376158412929            # 0xbffdf59feb77df7f
.LCPI1_847:
	.quad	-144128957745209873             # 0xfdfff379ffbfddef
	.quad	-1171217455405629513            # 0xefbeffedffcf7fb7
.LCPI1_848:
	.quad	-684548397490849793             # 0xf67ffedbfffeb7ff
	.quad	-3749633718013399115            # 0xcbf69ffff7fbefb5
.LCPI1_849:
	.quad	-648663769708239625             # 0xf6ff7bbcfbdfe4f7
	.quad	-14663087080612097              # 0xffcbe7ffff3fdeff
.LCPI1_850:
	.quad	8934815096083840511             # 0x7bfed6fdbfdffdff
	.quad	-1154188146366218789            # 0xeffb7ffefbdffddb
.LCPI1_851:
	.quad	-6989587996173402115            # 0x9efffebff9bffffd
	.quad	6914358033958829567             # 0x5ff4bbff7ffbfdff
.LCPI1_852:
	.quad	-1298163142882529797            # 0xedfbff7fdffb6dfb
	.quad	-2594073385374318609            # 0xdbffffffff77ffef
.LCPI1_853:
	.quad	-36139315302040643              # 0xff7f9b7bf4fefbbd
	.quad	9076862112252128959             # 0x7df77dfff3fd6ebf
.LCPI1_854:
	.quad	-4684526465079910663            # 0xbefd37ffebfedef9
	.quad	-1157751668050264081            # 0xefeed6fdefbf7fef
.LCPI1_855:
	.quad	-1252055681656160265            # 0xee9fcdfdbfdffff7
	.quad	-4647875483768260657            # 0xbf7f6ddf7dbef7cf
.LCPI1_856:
	.quad	-144125083714125833             # 0xfdfff6fffdfefff7
	.quad	-4693049878908256577            # 0xbedeeffffe7bbebf
.LCPI1_857:
	.quad	-4648277937740579201            # 0xbf7dffd7dfaffe7f
	.quad	9204714964940480429             # 0x7fbdb77defffdfad
.LCPI1_858:
	.quad	-811776650870177794             # 0xf4bbfd6fdfed3ffe
	.quad	-76702105175395361              # 0xfeef7fd77b7ef3df
.LCPI1_859:
	.quad	-454864327020453961             # 0xf9afff4df6f2dfb7
	.quad	-738625523260887041             # 0xf5bfdfffffff6fff
.LCPI1_860:
	.quad	-576462951595131155             # 0xf7fffdffefffbeed
	.quad	-2488244379731886659            # 0xdd77faeb7fb7fdbd
.LCPI1_861:
	.quad	7997970725543575547             # 0x6efe7ffff3ff7ffb
	.quad	-2882303778701328529            # 0xd7fffffbffbdbf6f
.LCPI1_862:
	.quad	-1477748163233456274            # 0xeb7dfbdffefbdf6e
	.quad	-589145613406306345             # 0xf7d2ef2f9fefffd7
.LCPI1_863:
	.quad	-576531121051795495             # 0xf7ffbfffffbfffd9
	.quad	-434597364045751491             # 0xf9f7ffffffbb5b3d
.LCPI1_864:
	.quad	8646629525953572031             # 0x77feffbdf6ddecbf
	.quad	-1716337650958469               # 0xfff9e6ffffffff7b
.LCPI1_865:
	.quad	9204513195949783991             # 0x7fbcfffbeefb7bb7
	.quad	-20323373129269825              # 0xffb7cbfff3fdfdbf
.LCPI1_866:
	.quad	-325385347990105377             # 0xfb7bffbffdeed2df
	.quad	8935137254049837045             # 0x7bfffbfdfeffeff5
.LCPI1_867:
	.quad	-1306096978413092870            # 0xeddfcfb7d779fffa
	.quad	-936752072844468225             # 0xf2fffcf3ef7e9fff
.LCPI1_868:
	.quad	-1317308389638275073            # 0xedb7faffbff7ffff
	.quad	-4612814126016663650            # 0xbffbfdfdfbdf6f9e
.LCPI1_869:
	.quad	-2305930989479804929            # 0xdfffaffb7f7dbfff
	.quad	-1297045497533441041            # 0xedfff7fdf5ffdbef
.LCPI1_870:
	.quad	-1731634718752899105            # 0xe7f7ff65dbffffdf
	.quad	-581599908306501777             # 0xf7edbdf6fffdbf6f
.LCPI1_871:
	.quad	6881486829248216956             # 0x5f7ff3cfbfde7f7c
	.quad	-4839117799618007041            # 0xbcd7ffffff7fafff
.LCPI1_872:
	.quad	-14083679375598769              # 0xffcdf6f7ddafdb4f
	.quad	-1173189371526906890            # 0xefb7fe7b7fdffbf6
.LCPI1_873:
	.quad	-1143493838766597               # 0xfffbefff97effdfb
	.quad	-141843475989765                # 0xffff7efe7dfffafb
.LCPI1_874:
	.quad	-5432137197289683               # 0xffecb37ffffbff2d
	.quad	9223055368890843135             # 0x7ffedffdfe7f7fff
.LCPI1_875:
	.quad	-73183545762324513              # 0xfefbfff3ef6edfdf
	.quad	-2346446960034059268            # 0xdf6fbeebfedfebfc
.LCPI1_876:
	.quad	-11399772067987493              # 0xffd77ff7bb5dffdb
	.quad	-297257646330216705             # 0xfbdfedbedfb7feff
.LCPI1_877:
	.quad	-1446254173359177858            # 0xebeddf7dedffff7e
	.quad	-579011929056755713             # 0xf7f6efb7dfdbbfff
.LCPI1_878:
	.quad	-2379167242798514179            # 0xdefb7fff7fbfbffd
	.quad	9223089393479118654             # 0x7ffefeeff5feef3e
.LCPI1_879:
	.quad	-5206306309273813057            # 0xb7bf7bfef3dbffbf
	.quad	-40550182105907381              # 0xff6fefd2ffffff4b
.LCPI1_880:
	.quad	-2357450640466457               # 0xfff79fe93fffdde7
	.quad	-1874803699243551233            # 0xe5fb5bf7fafff5ff
.LCPI1_881:
	.quad	-1198884298752001               # 0xfffbbd9eff3effff
	.quad	-439114175256531465             # 0xf9e7f3fbeffeedf7
.LCPI1_882:
	.quad	9223090003523649279             # 0x7ffeff7dff7bbeff
	.quad	-9087483200424993               # 0xffdfb6fb6fefb3df
.LCPI1_883:
	.quad	-1152997508516413569            # 0xefffbadff5f7ff7f
	.quad	-9042388057069641               # 0xffdfdffef7efe7b7
.LCPI1_884:
	.quad	-2310417392116760595            # 0xdfefbf9f7bfeffed
	.quad	-1585830568711456258            # 0xe9fdff7ff5ff79fe
.LCPI1_885:
	.quad	-20567774838390817              # 0xffb6edb7beefffdf
	.quad	-4649000148901298195            # 0xbf7b6efefbffffed
.LCPI1_886:
	.quad	8070120678625370100             # 0x6ffed3fff7ffdff4
	.quad	-18016606131060737              # 0xffbffdfdff7fffff
.LCPI1_887:
	.quad	-869345499152909585             # 0xf3ef76dfdfe7faef
	.quad	-2815858170757641               # 0xfff5fefdedfe7df7
.LCPI1_888:
	.quad	-4613973591579557889            # 0xbff7df76deddffff
	.quad	-4724277523092930979            # 0xbe6ffe9f7faefe5d
.LCPI1_889:
	.quad	-2467981967423976017            # 0xddbff779ff9fcdaf
	.quad	-144119861000306953             # 0xfdfffbbfffff7ef7
.LCPI1_890:
	.quad	-45035996340895761              # 0xff5ffffffbfebfef
	.quad	-18085866903704593              # 0xffbfbefff7bfebef
.LCPI1_891:
	.quad	9066867551754878710             # 0x7dd3fbffffdd7ef6
	.quad	-369306577146028049             # 0xfadff59feffedfef
.LCPI1_892:
	.quad	8912025364763475958             # 0x7baddfd9efff7ff6
	.quad	-1235394223079211009            # 0xeedaff7fdfcb3fff
.LCPI1_893:
	.quad	-6922595594402283571            # 0x9fedfffbfff7bfcd
	.quad	-2634676154245842050            # 0xdb6fbfff2ffbfb7e
.LCPI1_894:
	.quad	-5188586580239190789            # 0xb7fe6ffede7bf4fb
	.quad	-1143492097212449               # 0xfffbefffffbdffdf
.LCPI1_895:
	.quad	8932537449125182901             # 0x7bf6bf7bbdfafdb5
	.quad	-4614078625522778694            # 0xbff77fefbffdfdba
.LCPI1_896:
	.quad	-2341944374276991233            # 0xdf7fbdffef7ed6ff
	.quad	6899219409968033661             # 0x5fbef37fee9fef7d
.LCPI1_897:
	.quad	7484836851358892019             # 0x67df7b75befffff3
	.quad	-27763273106739                 # 0xffffe6bfdbf7facd
.LCPI1_898:
	.quad	-144220948474626193             # 0xfdff9fcfbcffff6f
	.quad	8060277776569040894             # 0x6fdbdbeebf5f7ffe
.LCPI1_899:
	.quad	-72218415334424581              # 0xfeff6dbbdfbffffb
	.quad	-1621582864293069330            # 0xe97efaf9f7f37dee
.LCPI1_900:
	.quad	-10133691950989313              # 0xffdbff75faff7fff
	.quad	-5188148986934659105            # 0xb7fffdfbfff4f7df
.LCPI1_901:
	.quad	-2778729837047848969            # 0xd96ff7ef7ffbdff7
	.quad	-9025620388481025               # 0xffdfef3efeddf7ff
.LCPI1_902:
	.quad	-589997944036418817             # 0xf7cfe7feef7f9aff
	.quad	-35210142425154                 # 0xffffdff9fff7dfbe
.LCPI1_903:
	.quad	-5785999690117955586            # 0xafb3ffeff7ffbffe
	.quad	-2377902838882903043            # 0xdefffdf779fddbfd
.LCPI1_904:
	.quad	6895010462165106151             # 0x5fafff7be7f3fde7
	.quad	-4629736152818254377            # 0xbfbfdf7f977bfdd7
.LCPI1_905:
	.quad	-577023702257386497             # 0xf7fdfffffff7bbff
	.quad	-180218771246514882             # 0xfd7fbbfb7dfe7d3e
.LCPI1_906:
	.quad	-216173099941400617             # 0xfcffffb5ffff6fd7
	.quad	-6926553823448670609            # 0x9fdfeffefbb7de6f
.LCPI1_907:
	.quad	-180143993684758657             # 0xfd7ffffdffffef7f
	.quad	-648852633320423489             # 0xf6fecff7bf5bffbf
.LCPI1_908:
	.quad	-2883429803191959603            # 0xd7fbffdefdf7ffcd
	.quad	-2310425782540862593            # 0xdfefb7fdefbf7b7f
.LCPI1_909:
	.quad	-729864683355635725             # 0xf5deffeffe7bfff3
	.quad	-4512550880822401               # 0xffeff7dbdfb7bb7f
.LCPI1_910:
	.quad	-2359886205815889924            # 0xdf3fffffbfffdffc
	.quad	-72202832853356545              # 0xfeff7be7f3ffafff
.LCPI1_911:
	.quad	-4728780985309726853            # 0xbe5ffebf7dfdf77b
	.quad	-71126805913683                 # 0xffffbf4f7fffdfad
.LCPI1_912:
	.quad	8646906061870857979             # 0x77fffb3ffffbfefb
	.quad	-72156569412830481              # 0xfeffa5fb7feffaef
.LCPI1_913:
	.quad	-2323857407739986561            # 0xdfbffffffeff7d7f
	.quad	9151307831654213627             # 0x7efff9fcb7ffe7fb
.LCPI1_914:
	.quad	-581529501448538129             # 0xf7edfdffdfbff7ef
	.quad	9218264100817853935             # 0x7fedda5bf6fbddef
.LCPI1_915:
	.quad	-1156337412433019393            # 0xeff3dd3ffb6f7dff
	.quad	-5295250146852993               # 0xffed2fff7fffff7f
.LCPI1_916:
	.quad	-290587866560561283             # 0xfbf79fdffd9e7f7d
	.quad	-5208712036770529285            # 0xb7b6efffdefdbffb
.LCPI1_917:
	.quad	-324963960971870465             # 0xfb7d7effcd77beff
	.quad	6898659750217244607             # 0x5fbcf67dfdfbdfbf
.LCPI1_918:
	.quad	-20303582811258886              # 0xffb7ddffbeddfffa
	.quad	-13651675962279937              # 0xffcf7fdf7fadf7ff
.LCPI1_919:
	.quad	-4508066399653905               # 0xffeffbefff9fefef
	.quad	8069007972832903163             # 0x6ffadffff67ffffb
.LCPI1_920:
	.quad	-1135830140257539               # 0xfffbf6f7eff6fafd
	.quad	-2814887239651521               # 0xfff5ffdffdff6f3f
.LCPI1_921:
	.quad	-4829125506656239977            # 0xbcfb7feffff9fe97
	.quad	-360358478528645249             # 0xfaffbfdf7f7ff77f
.LCPI1_922:
	.quad	-1189232463935996929            # 0xef7eff5ff7bb7bff
	.quad	9222246102026158071             # 0x7ffbfff7de7ffff7
.LCPI1_923:
	.quad	-613140460244959253             # 0xf77daffffdadffeb
	.quad	-38324580657463361              # 0xff77d7ff37beffbf
.LCPI1_924:
	.quad	-162413264880288261             # 0xfdbefdfeffffbdfb
	.quad	-46725125610037265              # 0xff59ffbeeded9fef
.LCPI1_925:
	.quad	-306633477791416393             # 0xfbbe9e79ffffffb7
	.quad	-4755838594394882561            # 0xbdffddfef3fffdff
.LCPI1_926:
	.quad	-2608860717247562145            # 0xdbcb76fffffcfe5f
	.quad	-291124359492338177             # 0xfbf5b7effefefdff
.LCPI1_927:
	.quad	-299076843241994                # 0xfffeeffdbeff7df6
	.quad	-2314850225656700929            # 0xdfdffffbff7fdfff
.LCPI1_928:
	.quad	-3607383303705329731            # 0xcdefffff7df7ffbd
	.quad	-4611831196980346917            # 0xbfff7bf5fbebffdb
.LCPI1_929:
	.quad	-4512671202484225               # 0xffeff7bfdbfcdfff
	.quad	9223358284080081271             # 0x7ffff37deebfe977
.LCPI1_930:
	.quad	8069286388878521790             # 0x6ffbdd37bfffb5be
	.quad	-2382969352460190853            # 0xdeedfdffdbf7bb7b
.LCPI1_931:
	.quad	9076995152286502909             # 0x7df7f6ffbffacffd
	.quad	9205355426302787255             # 0x7fbffdfcf7fdfeb7
.LCPI1_932:
	.quad	-324840819393691649             # 0xfb7deefeef7dffff
	.quad	-1459167397033811995            # 0xebbffefbbff7dfe5
.LCPI1_933:
	.quad	-577762677166882853             # 0xf7fb5fe7fefd3fdb
	.quad	-40603040311410817              # 0xff6fbfbffd6fff7f
.LCPI1_934:
	.quad	9223090413699530623             # 0x7ffeffdd7fdeff7f
	.quad	-4757208585817063974            # 0xbdfafffef7ef7dda
.LCPI1_935:
	.quad	-1127053374023681               # 0xfffbfef36fff97ff
	.quad	-2324456109154829314            # 0xdfbddf7bf5d6fbfe
.LCPI1_936:
	.quad	-1297461173024723209            # 0xedfe7deff7ffeef7
	.quad	-86140141651492881              # 0xfecdf7ff5ff5ffef
.LCPI1_937:
	.quad	9218828716027673590             # 0x7fefdbdfaffffbf6
	.quad	-91215553924956457              # 0xfebbefefde4ffed7
.LCPI1_938:
	.quad	-1254135695395                  # 0xfffffedbffaff7dd
	.quad	-2450349625576562828            # 0xddfe9bff7fff5f74
.LCPI1_939:
	.quad	-5197312299744100353            # 0xb7df6ffffafbffff
	.quad	-612639495758020613             # 0xf77f779fdff7fffb
.LCPI1_940:
	.quad	-2308737483237753346            # 0xdff5b77dbffbfdfe
	.quad	-4829024352661946370            # 0xbcfbdbefbfdfbffe
.LCPI1_941:
	.quad	-289356312842600707             # 0xfbfbfff76f7ffefd
	.quad	-290552562030227523             # 0xfbf7bffbf79bcfbd
.LCPI1_942:
	.quad	-604889999963361537             # 0xf79affbff7ff6eff
	.quad	-108089692084308001             # 0xfe7ffcff6b6ef7df
.LCPI1_943:
	.quad	-24770898674385985              # 0xffa7feffb7befbbf
	.quad	9067997835684702198             # 0x7dd7fffcbbff67f6
.LCPI1_944:
	.quad	-873698467304712323             # 0xf3dfffdf7f7fd77d
	.quad	9043187215076650366             # 0x7d7fdadbf7ff6d7e
.LCPI1_945:
	.quad	-17662585373218                 # 0xffffefef9bdf7dde
	.quad	-6990150705575232561            # 0x9efdfef7fbbdfbcf
.LCPI1_946:
	.quad	-2538780972028929               # 0xfff6fafdfdffebff
	.quad	-162287993636261893             # 0xfdbf6fedfbffeffb
.LCPI1_947:
	.quad	-577613315946186129             # 0xf7fbe7bfdd7dfa6f
	.quad	-1441724263804469249            # 0xebfdf76bafdf7fff
.LCPI1_948:
	.quad	-5207326652105756674            # 0xb7bbdbffdfcfeffe
	.quad	-45176768432177155              # 0xff5f7ff7ed7ffffd
.LCPI1_949:
	.quad	-8804821377025                  # 0xfffff7fdf7bfdfff
	.quad	-4611849025346617862            # 0xbfff6bbefe7bbdfa
.LCPI1_950:
	.quad	-37154699610759187              # 0xff7bffff5ff6dfed
	.quad	-24840375001153665              # 0xffa7bfcf7ff7ff7f
.LCPI1_951:
	.quad	8070166543641573051             # 0x6ffefdb6bfff76bb
	.quad	-7782246547068567559            # 0x93ffe7ff5f77bff9
.LCPI1_952:
	.quad	8934851234746073087             # 0x7bfef7dbefffffff
	.quad	-72093087664474401              # 0xfeffdfb7feff76df
.LCPI1_953:
	.quad	-2882303903319327749            # 0xd7ffffdefbedfbfb
	.quad	-3461017416404897857            # 0xcff7feff3dbeefbf
.LCPI1_954:
	.quad	9061223956139980287             # 0x7dbfef2dfffbb5ff
	.quad	-617556408720711813             # 0xf76dffb7dd6f9f7b
.LCPI1_955:
	.quad	-2614349556619419714            # 0xdbb7f6edfeffdfbe
	.quad	-4686138900157091873            # 0xbef77d7f9fff2fdf
.LCPI1_956:
	.quad	-6932166001345693985            # 0x9fcbffbffdbff6df
	.quad	-71055939276881                 # 0xffffbf5ffffaefaf
.LCPI1_957:
	.quad	-144291659701846021             # 0xfdff5f7fff6b7ffb
	.quad	-17594702643249                 # 0xffffefff69ffbfcf
.LCPI1_958:
	.quad	-35270307120211                 # 0xffffdfebfddf7bad
	.quad	-4613234131876347977            # 0xbffa7fffbfcd7fb7
.LCPI1_959:
	.quad	-7205787991900440977            # 0x9bffe5ffcfffb66f
	.quad	7908276415390809079             # 0x6dbfd77ffcf7fbf7
.LCPI1_960:
	.quad	-1155226082052425761            # 0xeff7cfffbfffb7df
	.quad	-2307197745045179441            # 0xdffb2fdffbfff3cf
.LCPI1_961:
	.quad	-439102063448752130             # 0xf9e7feffeffefffe
	.quad	9211830939483617271             # 0x7fd6ff6ededfb7f7
.LCPI1_962:
	.quad	-577041603961553157             # 0xf7fdefb7ef3ffefb
	.quad	6863204271236055037             # 0x5f3effebfff7fffd
.LCPI1_963:
	.quad	-234194361826426913             # 0xfcbff977feefbfdf
	.quad	-4971976325448409093            # 0xbafffddfe9fedffb
.LCPI1_964:
	.quad	-2454461797067993619            # 0xddeffffff6fecded
	.quad	-576619091104781098             # 0xf7ff6ffddffdacd6
.LCPI1_965:
	.quad	-1125900452192257               # 0xfffbffffdf7e9fff
	.quad	-36065150830186625              # 0xff7fdeefb7feef7f
.LCPI1_966:
	.quad	-4684170300297838661            # 0xbefe7bedff4fffbb
	.quad	-2319494820462600337            # 0xdfcf7fbffff7df6f
.LCPI1_967:
	.quad	-845525969018882                # 0xfffcfeffa4f7dffe
	.quad	-577639979078156641             # 0xf7fbcf7fdefb7e9f
.LCPI1_968:
	.quad	-4575106542601223               # 0xffefbef6ffb7fbf9
	.quad	7921545867897601013             # 0x6deefbff27fffbf5
.LCPI1_969:
	.quad	-4830392419130413129            # 0xbcf6ffaff3fdefb7
	.quad	-4910612585462104113            # 0xbbd9ffdefdf7ffcf
.LCPI1_970:
	.quad	8034411822410596349             # 0x6f7ff6fbfdfb7ffd
	.quad	-1153084233401651265            # 0xefff6bffbffdafbf
.LCPI1_971:
	.quad	-4620694323674023203            # 0xbfdffefe7dbefadd
	.quad	-2612163237881381507            # 0xdbbfbb5ffebefd7d
.LCPI1_972:
	.quad	-310991274505                   # 0xffffffb79779bdf7
	.quad	-577023977403196449             # 0xf7fdffbfefffdbdf
.LCPI1_973:
	.quad	-2342505125071291026            # 0xdf7dbffff797fd6e
	.quad	-4685010284221563202            # 0xbefb7ff7ffebfebe
.LCPI1_974:
	.quad	-581195661757188097             # 0xf7ef2d9ffbf6f7ff
	.quad	-1477215889014173697            # 0xeb7fdff9bebf4fff
.LCPI1_975:
	.quad	8068198422651338743             # 0x6ff7ffb7df7ffff7
	.quad	-4616754784244990993            # 0xbfedfdfbfdfdfbef
.LCPI1_976:
	.quad	-468418350435799180             # 0xf97fd7fdf7ffef74
	.quad	-4620710892087035909            # 0xbfdfefecdb5fb7fb
.LCPI1_977:
	.quad	-8796362637345                  # 0xfffff7ffefedffdf
	.quad	-1155173314084741697            # 0xeff7fffdbff7ddbf
.LCPI1_978:
	.quad	-1152923776779943937            # 0xeffffdeef7edffff
	.quad	-2305851805315104775            # 0xdffff7ffff7ffff9
.LCPI1_979:
	.quad	8788488230421921279             # 0x79f6fb7b6efffdff
	.quad	-721724106614116354             # 0xf5fbebbfb76deffe
.LCPI1_980:
	.quad	-2378492192047497233            # 0xdefde5f3fff7ffef
	.quad	-18050203690995713              # 0xffbfdf6f74dfefff
.LCPI1_981:
	.quad	3458335690189567927             # 0x2ffe79fcb7cdf7b7
	.quad	-2306003538448295937            # 0xdfff6dffdffed7ff
.LCPI1_982:
	.quad	8051832364377305086             # 0x6fbddadffdb3effe
	.quad	-579891228591524425             # 0xf7f3cfffff6ff5b7
.LCPI1_983:
	.quad	-72075186827968645              # 0xfeffefffdbffbf7b
	.quad	7743934052712775487             # 0x6b77fafde7feff3f
.LCPI1_984:
	.quad	-4702040048594714689            # 0xbebeff7cffd9ffbf
	.quad	-5233182784192774149            # 0xb75ffffbff7ffffb
.LCPI1_985:
	.quad	-2594143824993387603            # 0xdbffbfef7efefbad
	.quad	-1227371670373830662            # 0xeef77ff7fbfd6ffa
.LCPI1_986:
	.quad	-4899986767627755651            # 0xbbffbffeff6edf7d
	.quad	-2306124563652018305            # 0xdffeffed7fb7ff7f
.LCPI1_987:
	.quad	-9165533896507905               # 0xffdf6ffed7ebfdff
	.quad	-685190649720367361             # 0xf67db6bbffff96ff
.LCPI1_988:
	.quad	-1152926040262181905            # 0xeffffbdff5dffbef
	.quad	-3659449650647049               # 0xfff2ffbffb7feff7
.LCPI1_989:
	.quad	-2305860604088287233            # 0xdfffefff5fbfffff
	.quad	7885802792487190511             # 0x6d6fffdbe6fb7fef
.LCPI1_990:
	.quad	9148745973922512887             # 0x7ef6dffdbbefbff7
	.quad	-108159014664732677             # 0xfe7fbdf2ffa6fffb
.LCPI1_991:
	.quad	6768803509861874679             # 0x5def9eedf7bbfbf7
	.quad	4539480814808711167             # 0x3eff79bff75fbfff
.LCPI1_992:
	.quad	-577753932639633665             # 0xf7fb67dbfd6dfeff
	.quad	8934577601573814269             # 0x7bfdfefdbff7fffd
.LCPI1_993:
	.quad	-1152958991099232262            # 0xefffdde7feeffffa
	.quad	-4648841024667451393            # 0xbf7bffb7fb6effff
.LCPI1_994:
	.quad	-70437597884417                 # 0xffffbfeff7ffcfff
	.quad	-1161928746945642498            # 0xefdffff5f7fd7ffe
.LCPI1_995:
	.quad	-117095826177729585             # 0xfe5ffdf76bfedbcf
	.quad	-2486059014501733393            # 0xdd7fbe7f7df76bef
.LCPI1_996:
	.quad	-1163195693454623010            # 0xefdb7fadff5f7ede
	.quad	-76658380189550851              # 0xfeefa79bffbeb6fd
.LCPI1_997:
	.quad	-288512950640060041             # 0xfbfefeffffffd977
	.quad	9124009170448676830             # 0x7e9efdffdbfff7de
.LCPI1_998:
	.quad	-4613377069458540705            # 0xbff9fdff7ffdb75f
	.quad	8934789814798707710             # 0x7bfebfff7ddaebfe
.LCPI1_999:
	.quad	-1441222799543862785            # 0xebffbf7feefe79ff
	.quad	-37419433984518                 # 0xffffddf79bedfdfa
.LCPI1_1000:
	.quad	-81136261854660609              # 0xfedfbeffedbff7ff
	.quad	-167209330574622745             # 0xfdadf3ffeff7ffe7
.LCPI1_1001:
	.quad	9223055089592156155             # 0x7ffedfbcf6ffbffb
	.quad	-288233675231855651             # 0xfbfffcffdf7ffbdd
.LCPI1_1002:
	.quad	-1175439504895475715            # 0xefafffff7fbe7ffd
	.quad	-1161933137343807501            # 0xefdffbf7bfddfff3
.LCPI1_1003:
	.quad	-288795679818530817             # 0xfbfdfddbfbbfbfff
	.quad	-1189240598465614353            # 0xef7ef7f9fffbedef
.LCPI1_1004:
	.quad	7492828592048406198             # 0x67fbdfe7dfef7eb6
	.quad	-36258599278362625              # 0xff7f2efefdf5bfff
.LCPI1_1005:
	.quad	-1155208626365796355            # 0xeff7dfdff7ffeffd
	.quad	8646911275867039735             # 0x77fffffdfa5fe7f7
.LCPI1_1006:
	.quad	-37163961174458373              # 0xff7bf792ffbffffb
	.quad	-38843642349166594              # 0xff75ffe9bffedffe
.LCPI1_1007:
	.quad	-4701901537574650433            # 0xbebf7d769bfffdbf
	.quad	-2315976387816719361            # 0xdfdbffbeeffdfbff
.LCPI1_1008:
	.quad	-309063939671535809             # 0xfbb5fbfbfefecf3f
	.quad	-585626290493849893             # 0xf7df6ffdd7fbfedb
.LCPI1_1009:
	.quad	-360851231905678355             # 0xfafdffb7697ffbed
	.quad	-1297634964602421907            # 0xedfddfdff6befd6d
.LCPI1_1010:
	.quad	-3377734214516769               # 0xfff3fff7f7ff7fdf
	.quad	-17734197389445                 # 0xffffefdeef76d77b
.LCPI1_1011:
	.quad	-40862799940820993              # 0xff6ed37ffcffdfff
	.quad	-1170936212353991266            # 0xefbfffb7ffffbd9e
.LCPI1_1012:
	.quad	-6918727513132761121            # 0x9ffbbdfbd9ffffdf
	.quad	8070414109815865341             # 0x6fffdedfbddffffd
.LCPI1_1013:
	.quad	-81348536694080001              # 0xfedefdefd759fdff
	.quad	-4937088735767954469            # 0xbb7beff3dff7fbdb
.LCPI1_1014:
	.quad	9202753986220777470             # 0x7fb6bffdffffdffe
	.quad	-1224979648554866689            # 0xeeffff7ff6cde7ff
.LCPI1_1015:
	.quad	-401033809531764865             # 0xfa6f3ddfffefff7f
	.quad	-148689156452122633             # 0xfdefbfffffb7fff7
.LCPI1_1016:
	.quad	-163273093182259233             # 0xfdbbeffc9f7dffdf
	.quad	-10221114324156435              # 0xffdbaff35f7fffed
.LCPI1_1017:
	.quad	-166633205542683650             # 0xfdaffffb7fd7fbfe
	.quad	3386706816568913631             # 0x2effffe7f7fbeedf
.LCPI1_1018:
	.quad	-2886957169872224401            # 0xd7ef77bfefffbf6f
	.quad	-18300847092405769              # 0xffbefb79fdf7e9f7
.LCPI1_1019:
	.quad	-1173187702955180041            # 0xefb7fffffe7ffff7
	.quad	-5085378784593923               # 0xffedeedffbfef7fd
.LCPI1_1020:
	.quad	-44120487788611                 # 0xffffd7df65ff7fbd
	.quad	9078955238391541243             # 0x7dfeedafdbffedfb
.LCPI1_1021:
	.quad	-4620712051114770485            # 0xbfdfeedeffefffcb
	.quad	8070441734006857662             # 0x6ffff7ff7ff75fbe
.LCPI1_1022:
	.quad	-576625713407344641             # 0xf7ff69f7ffffbfff
	.quad	-2634825686552084513            # 0xdb6f37ff7bfcffdf
.LCPI1_1023:
	.quad	8917048028618031077             # 0x7bbfb7effedfffe5
	.quad	8502513792015368191             # 0x75feff3edeef7fff
.LCPI1_1024:
	.quad	-685690653170008097             # 0xf67beffbdffeffdf
	.quad	-3603513037908611265            # 0xcdfdbffbf7f7ef3f
.LCPI1_1025:
	.quad	4611643953449267198             # 0x3fffd9bdfbebeffe
	.quad	-4972607324494628865            # 0xbafdbffbfffdf7ff
.LCPI1_1026:
	.quad	-36310289180004353              # 0xff7efffbffbbefff
	.quad	9223353859460265975             # 0x7fffef77bedb77f7
.LCPI1_1027:
	.quad	-5194356847306410115            # 0xb7e9eff7dfaef77d
	.quad	9072457400153268215             # 0x7de7d7efffffdff7
.LCPI1_1028:
	.quad	-90512359839236677              # 0xfebe6f7cfffffdbb
	.quad	-4616893323486430353            # 0xbfed7ffbcfb7fb6f
.LCPI1_1029:
	.quad	-2305844658768445441            # 0xdffffe7feedfffff
	.quad	-5191559725288915553            # 0xb7f3dfef97edfd9f
.LCPI1_1030:
	.quad	-2594284800843974021            # 0xdbff3fb7ff7ffa7b
	.quad	-150870813019742729             # 0xfde7ffcb7efbddf7
.LCPI1_1031:
	.quad	-18331367095943681              # 0xffbedfb7ffffbdff
	.quad	-2594075618782562339            # 0xdbfffdf7fdf6b7dd
.LCPI1_1032:
	.quad	-40534045914300545              # 0xff6ffe7ffff7ff7f
	.quad	-1152923713430099974            # 0xeffffdfdb7dfe7fa
.LCPI1_1033:
	.quad	-6926564956540903425            # 0x9fdfe5dedbb5dfff
	.quad	8934569904707207159             # 0x7bfdf7fdaef7fff7
.LCPI1_1034:
	.quad	-576461028265853186             # 0xf7ffffbfbf5b7efe
	.quad	-580965608277032967             # 0xf7effedb7bedbff9
.LCPI1_1035:
	.quad	-3747276366429655169            # 0xcbfeffffa7be6f7f
	.quad	9070246831354281983             # 0x7ddffd6fd7fbffff
.LCPI1_1036:
	.quad	-9728667862696993               # 0xffdd6fd3ffe7fbdf
	.quad	-344525371493844553             # 0xfb37fffffffff9b7
.LCPI1_1037:
	.quad	-650810278933447202             # 0xf6f7db7fdbffbdde
	.quad	-5629503829320069               # 0xffebfffefffdde7b
.LCPI1_1038:
	.quad	9055894260348874237             # 0x7dacffd97f97edfd
	.quad	9205357599681146619             # 0x7fbffff6ff6feefb
.LCPI1_1039:
	.quad	-684617512474657793             # 0xf67fbfffe9efbbff
	.quad	-3512809358635368514            # 0xcf3ffe7ffedeffbe
.LCPI1_1040:
	.quad	-11294183507628033              # 0xffd7dffffbffefff
	.quad	-149815783065873                # 0xffff77be4b77f6ef
.LCPI1_1041:
	.quad	-180157196435193993             # 0xfd7ff3fbfebfff77
	.quad	-651087157767717665             # 0xf6f6dfadfb6fbcdf
.LCPI1_1042:
	.quad	-6917546619828191249            # 0x9fffefffffefbfef
	.quad	-2306231147857739787            # 0xdffe9efd6dff7ff5
.LCPI1_1043:
	.quad	4593653752784355255             # 0x3fbfefbffbd9ffb7
	.quad	-5193802933968839729            # 0xb7ebe7bfdf67dbcf
.LCPI1_1044:
	.quad	6611177521951767548             # 0x5bbf9eedbefb7bfc
	.quad	-145294521670879810             # 0xfdfbcf66ffff35be
.LCPI1_1045:
	.quad	-7242923996658934917            # 0x9b7bf6ffebfddb7b
	.quad	-18577348865822739              # 0xffbdffffe7fbefed
.LCPI1_1046:
	.quad	-1154082589422944545            # 0xeffbdfffdffb7edf
	.quad	-2350949649151967265            # 0xdf5fbfbffd77bfdf
.LCPI1_1047:
	.quad	-144115188210073619             # 0xfdfffffff7ffffed
	.quad	-1372511878099503105            # 0xecf3dbb7ffdff7ff
.LCPI1_1048:
	.quad	-288863714176679939             # 0xfbfdbffb7fffbffd
	.quad	-347353454198391809             # 0xfb2df3dfaefffbff
.LCPI1_1049:
	.quad	7980094864623662239             # 0x6ebefdffbfcff49f
	.quad	-109353084325462033             # 0xfe7b7ff2fdafffef
.LCPI1_1050:
	.quad	5728574189455998902             # 0x4f7ffbdfbffeffb6
	.quad	-281552362017029                # 0xfffeffedfb79eefb
.LCPI1_1051:
	.quad	-874825778100454533             # 0xf3dbfe96fff7bb7b
	.quad	-1155745668942332930            # 0xeff5f76ffffefbfe
.LCPI1_1052:
	.quad	-144258193457954853             # 0xfdff7deff6ffbfdb
	.quad	-151736970914053                # 0xffff75fefbbfd6fb
.LCPI1_1053:
	.quad	-2450521226834092033            # 0xddfdffed77ffdfff
	.quad	-1738394678862168066            # 0xe7dffb3ffefdbffe
.LCPI1_1054:
	.quad	-36040069262344449              # 0xff7ff5bf79effeff
	.quad	-1299887179799037074            # 0xedf5df7f3ffe7b6e
.LCPI1_1055:
	.quad	4457433298781470710             # 0x3ddbfbf7ffddfff6
	.quad	-2954953032401436673            # 0xd6fde5df7fbfbfff
.LCPI1_1056:
	.quad	8916836844020686830             # 0x7bbef7ddbff7dfee
	.quad	-1226105857548239105            # 0xeefbff37ffcfbeff
.LCPI1_1057:
	.quad	-5264727897372885025            # 0xb6efeddefdffffdf
	.quad	-1155209596932202497            # 0xeff7defdfdbbdfff
.LCPI1_1058:
	.quad	9142306895132878843             # 0x7edfffaedfffe7fb
	.quad	-5189272670919738385            # 0xb7fbffffef2fbbef
.LCPI1_1059:
	.quad	-2344158807615143947            # 0xdf77dffbfefefff5
	.quad	-162136189023830114             # 0xfdbff9febfffbf9e
.LCPI1_1060:
	.quad	-81073864264780803              # 0xfedff7bfffedf3fd
	.quad	-2616877267265007633            # 0xdbaefbfd7fdfcfef
.LCPI1_1061:
	.quad	-18436619707125769              # 0xffbe7ffdf77f6ff7
	.quad	-70369348698163                 # 0xffffbfffdbf7bfcd
.LCPI1_1062:
	.quad	-1155736463923478595            # 0xeff5ffcf35dfffbd
	.quad	4536914485018853270             # 0x3ef65bafbfdf7f96
.LCPI1_1063:
	.quad	-2305913399433308289            # 0xdfffbffafff6d77f
	.quad	-18049600229487617              # 0xffbfdffbf5fbcbff
.LCPI1_1064:
	.quad	-1729664556589908513            # 0xe7feff3ffbdffddf
	.quad	-612630286816509971             # 0xf77f7fffffa7ffed
.LCPI1_1065:
	.quad	-6839101911499913               # 0xffe7b3df7ffb7b77
	.quad	-4622964809261255173            # 0xbfd7edffded9f5fb
.LCPI1_1066:
	.quad	-865818127874801669             # 0xf3fbfeffffedbffb
	.quad	-9363030900756                  # 0xfffff77bffde7fec
.LCPI1_1067:
	.quad	-666673486650937345             # 0xf6bf7ffefeffefff
	.quad	-301812922462568577             # 0xfbcfbebefffeff7f
.LCPI1_1068:
	.quad	-2323857547448090625            # 0xdfbfffdf77beffff
	.quad	8043411338002546651             # 0x6f9feffefffdbfdb
.LCPI1_1069:
	.quad	-72629615541095441              # 0xfefdf7bfdd7ff3ef
	.quad	-2450556555091838017            # 0xddfddfcbf7befbbf
.LCPI1_1070:
	.quad	-4621962063772915746            # 0xbfdb7dfdbf7be7de
	.quad	-577023702596599809             # 0xf7fdffffebbfbfff
.LCPI1_1071:
	.quad	-285873292187153                # 0xfffefbffeff7e9ef
	.quad	-586593860071754241             # 0xf7dbfffdfeff75ff
.LCPI1_1072:
	.quad	-2306564291022687253            # 0xdffd6fff7dfdf3eb
	.quad	9079186411142994750             # 0x7dffbfeff5bb5b3e
.LCPI1_1073:
	.quad	-164524323464298825             # 0xfdb77dffdeffbeb7
	.quad	-36197160542273697              # 0xff7f66dfcfffff5f
.LCPI1_1074:
	.quad	-3477341881644359690            # 0xcfbdfffb7dffdff6
	.quad	-6341244236928663585            # 0xa7ff5ff6bfdfbfdf
.LCPI1_1075:
	.quad	-7205838710372499463            # 0x9bffb7deff7cfff9
	.quad	9079182004409859943             # 0x7dffbbedeff7ff67
.LCPI1_1076:
	.quad	-4756927141977800969            # 0xbdfbfff7b7ffbef7
	.quad	-2307553059302014977            # 0xdff9ecb7efefffff
.LCPI1_1077:
	.quad	-2485988866950464066            # 0xdd7ffe4bfdd77dbe
	.quad	-72238188958056705              # 0xfeff5bbff7effeff
.LCPI1_1078:
	.quad	-2955065060243875973            # 0xd6fd7ffbfbfed77b
	.quad	-162455042044200457             # 0xfdbed7fffefbf9f7
.LCPI1_1079:
	.quad	-676666187618454025             # 0xf69bffafff7bf5f7
	.quad	-72620550433817729              # 0xfefdfffe7fffbb7f
.LCPI1_1080:
	.quad	-38611549838942211              # 0xff76d2ffff9f5ffd
	.quad	-72361063745847813              # 0xfefeebfef3dbfdfb
.LCPI1_1081:
	.quad	-13652670778720417              # 0xffcf7ef7dfffbf5f
	.quad	9184739593866182655             # 0x7f76bfff6edbffff
.LCPI1_1082:
	.quad	-4755803406684164193            # 0xbdfffdffbaff6f9f
	.quad	-2603080584725135361            # 0xdbdffffff9bdffff
.LCPI1_1083:
	.quad	-915001986523153                # 0xfffcbfcf7f9fdfef
	.quad	-5350276392347013165            # 0xb5bffff7d7ff6fd3
.LCPI1_1084:
	.quad	-2306414772507205633            # 0xdffdf7fbfbfe9fff
	.quad	-40532465365844116              # 0xff6fffefffff7f6c
.LCPI1_1085:
	.quad	9211972265795514302             # 0x7fd77ff7f77defbe
	.quad	-4900006698422435847            # 0xbbffadde7f7efff9
.LCPI1_1086:
	.quad	-1297073114290585609            # 0xedffdedfeefffff7
	.quad	-3712501548318785               # 0xfff2cf7fdffbffbf
.LCPI1_1087:
	.quad	-2342596386610168961            # 0xdf7d6cff7bfcbb7f
	.quad	-36323467213242497              # 0xff7ef3ffbfbe7f7f
.LCPI1_1088:
	.quad	4025793650546812671             # 0x37de7dfedfdda6ff
	.quad	-324417520025075717             # 0xfb7f6ffbfffdfffb
.LCPI1_1089:
	.quad	-2578921702883337               # 0xfff6d67bfffefff7
	.quad	-1125899976180261               # 0xfffbfffffbddfddb
.LCPI1_1090:
	.quad	-4937071091774456961            # 0xbb7bffffefeefb7f
	.quad	8934569914253958647             # 0x7bfdf7ffe7ffddf7
.LCPI1_1091:
	.quad	9214061362591788538             # 0x7fdeebfdb7ef6dfa
	.quad	-572879951388689                # 0xfffdf6f7fdff9fef
.LCPI1_1092:
	.quad	-40532534236807313              # 0xff6fffdff6f7ff6f
	.quad	-4612953003850235973            # 0xbffb7faef7ef7fbb
.LCPI1_1093:
	.quad	-2882303903520194565            # 0xd7ffffdeeff4fffb
	.quad	-40536796068880521              # 0xff6ffbffadfb5f77
.LCPI1_1094:
	.quad	-52776625275658                 # 0xffffcffffbff7cf6
	.quad	-73834409694331011              # 0xfef9affeddf7ff7d
.LCPI1_1095:
	.quad	5759822446248811319             # 0x4feeffff7dfb5b37
	.quad	-81064806320181321              # 0xfedffffcf77fefb7
.LCPI1_1096:
	.quad	-4910209202142060581            # 0xbbdb6ebefd77dfdb
	.quad	-1173258142541414923            # 0xefb7bfef7ffbfdf5
.LCPI1_1097:
	.quad	-579839040436584449             # 0xf7f3ff76ffdfbfff
	.quad	-2347502545133576481            # 0xdf6bfedf6ffcdedf
.LCPI1_1098:
	.quad	-13881334563409                 # 0xfffff35ffffbfdaf
	.quad	-27062014077829121              # 0xff9fdb3dd7fbffff
.LCPI1_1099:
	.quad	-864693346915855377             # 0xf3fffdfb796fd3ef
	.quad	-1211469006436368913            # 0xef2fff5b76f6fdef
.LCPI1_1100:
	.quad	-146402494384472098             # 0xfdf7dfb4fffb7fde
	.quad	-950268472087159061             # 0xf2cff7dbfffddeeb
.LCPI1_1101:
	.quad	8917127262055137151             # 0x7bbffffff7bf7f7f
	.quad	-18014510724939842              # 0xffbfffe5df6fffbe
.LCPI1_1102:
	.quad	-5260274768415296657            # 0xb6ffbff7dfa7f36f
	.quad	-1155244920852709377            # 0xeff7bedd7fffffff
.LCPI1_1103:
	.quad	-20419021373441                 # 0xffffed6dd37bffff
	.quad	-288935300816700801             # 0xfbfd7edfefbffa7f
.LCPI1_1104:
	.quad	8034069341751893998             # 0x6f7ebf7ffffa5fee
	.quad	-4704067019754963458            # 0xbeb7cbf7ffdffdfe
.LCPI1_1105:
	.quad	-172079720451                   # 0xffffffd7ef3fd7fd
	.quad	-4503599627898947               # 0xffeffffffff7efbd
.LCPI1_1106:
	.quad	8628474639082847707             # 0x77be7ff7f7fffddb
	.quad	-900747416049878017             # 0xf37fe6ff59fefbff
.LCPI1_1107:
	.quad	-3602950139377353729            # 0xcdffbfeffef7fbff
	.quad	-288073255782657                # 0xfffef9ffb7eb76ff
.LCPI1_1108:
	.quad	-577023840035602437             # 0xf7fdffdfebbefffb
	.quad	7781370782256451055             # 0x6bfcfb7fbdffcdef
.LCPI1_1109:
	.quad	-28150083242459202              # 0xff9bfda5ffef7fbe
	.quad	-5188728429628884997            # 0xb7fdeefbfbfff7fb
.LCPI1_1110:
	.quad	-2346481037393035337            # 0xdf6f9fedbdff7fb7
	.quad	-225198123337662729             # 0xfcdfef7ffe5fbef7
.LCPI1_1111:
	.quad	-40541661729800465              # 0xff6ff792cdfdbeef
	.quad	8934296135992245685             # 0x7bfcfeffeff67db5
.LCPI1_1112:
	.quad	-1155314592739508225            # 0xeff77f7fbfefbfff
	.quad	-2310489552067889281            # 0xdfef7dfe6fbdf77f
.LCPI1_1113:
	.quad	-295830209115193481             # 0xfbe4fffdffdbff77
	.quad	-1170935907411329029            # 0xefbffffeffff7ffb
.LCPI1_1114:
	.quad	-937383415848716577             # 0xf2fdbebfeffeb6df
	.quad	-5137127710949378               # 0xffedbfcf3f9f7ffe
.LCPI1_1115:
	.quad	9223367319839698846             # 0x7ffffbb5bbfdef9e
	.quad	-4683743612473704835            # 0xbeffffffff7ffe7d
.LCPI1_1116:
	.quad	-1207281368363479042            # 0xef3edffdeebf4ffe
	.quad	-576498135715547137             # 0xf7ffddfffefff7ff
.LCPI1_1117:
	.quad	-4611757486684372993            # 0xbfffbeffffedffff
	.quad	-3747034611176275969            # 0xcbffdbdfafbe7fff
.LCPI1_1118:
	.quad	4611665402433222075             # 0x3fffed3ff6fdb5bb
	.quad	-617134986487670017             # 0xf76f7effdfefdaff
.LCPI1_1119:
	.quad	-36100282758824002              # 0xff7fbefbedde7fbe
	.quad	-4611686568183205921            # 0xbfffff7fffffefdf
.LCPI1_1120:
	.quad	-2630105515279001637            # 0xdb7ffcf7ffffd7db
	.quad	-144124141073924163             # 0xfdfff7db77baffbd
.LCPI1_1121:
	.quad	-163413821023851022             # 0xfdbb6ffede7bedf2
	.quad	-17867064027137                 # 0xffffefbffffed7ff
.LCPI1_1122:
	.quad	-2323892610365653187            # 0xdfbfdffbbeffff3d
	.quad	-144119659338137665             # 0xfdfffbeef3ffffbf
.LCPI1_1123:
	.quad	-2967872446768087043            # 0xd6cfffbbefb7fffd
	.quad	-4503609307824258               # 0xffeffffdbeffff7e
.LCPI1_1124:
	.quad	-18032266731063305              # 0xffbfefbfbafff7f7
	.quad	-649082569853239313             # 0xf6fdfed779ffffef
.LCPI1_1125:
	.quad	9216546267293540350             # 0x7fe7bfffadfbdffe
	.quad	-162413535482102277             # 0xfdbefdbffedfbdfb
.LCPI1_1126:
	.quad	-39200498049                    # 0xfffffff6df77de7f
	.quad	9187237686431710119             # 0x7f7f9fffeed7fba7
.LCPI1_1127:
	.quad	-18021034385080325              # 0xffbff9f6f6fdfffb
	.quad	-6923372107342741793            # 0x9feb3dbffdfcfedf
.LCPI1_1128:
	.quad	8784257191849226087             # 0x79e7f35fffd7ef67
	.quad	-1154381657123603201            # 0xeffacfffbfebbcff
.LCPI1_1129:
	.quad	-289374987084120355             # 0xfbfbeefb7ff7bedd
	.quad	-2252917717368977               # 0xfff7fefbb7bf7f6f
.LCPI1_1130:
	.quad	-1163054646786525193            # 0xefdbfff5fbebf7f7
	.quad	-4621397199664709637            # 0xbfdd7fbb6bfffffb
.LCPI1_1131:
	.quad	-4785634212315137               # 0xffeeff7db4bfffff
	.quad	7409511544137678591             # 0x66d3df7dfb7b7eff
.LCPI1_1132:
	.quad	-72145594159857681              # 0xfeffaff6dffdffef
	.quad	-77580013641                    # 0xffffffedefdeefb7
.LCPI1_1133:
	.quad	-4755960090373130305            # 0xbdff6f7ef75ff7bf
	.quad	-4622523084473630897            # 0xbfd97fbeefe7ff4f
.LCPI1_1134:
	.quad	-345369808537452545             # 0xfb34fffd2dfaffff
	.quad	-146367606381611585             # 0xfdf7ff6ffefff5bf
.LCPI1_1135:
	.quad	-9008300985158693               # 0xffdffeff7bbff3db
	.quad	-914813154763393                # 0xfffcbffb76dfdd7f
.LCPI1_1136:
	.quad	8645363137818476283             # 0x77fa7ff7ffed3efb
	.quad	-642149485904145                # 0xfffdb7f7ebfffeef
.LCPI1_1137:
	.quad	-198193568000017427             # 0xfd3fdffffe977bed
	.quad	-83353980872298498              # 0xfed7ddfefb7deffe
.LCPI1_1138:
	.quad	-301811825098489857             # 0xfbcfbfbe7ffdffff
	.quad	-1445656038732234897            # 0xebefff7dfff77f6f
.LCPI1_1139:
	.quad	-2200642535745                  # 0xfffffdff9f7bbebf
	.quad	-7026758928574726307            # 0x9e7beffbdbffbf5d
.LCPI1_1140:
	.quad	9223358841603489791             # 0x7ffff3ffbdbbffff
	.quad	8646765873599606519             # 0x77ff7bbfdfdfeef7
.LCPI1_1141:
	.quad	-5485402075763327137            # 0xb3dfefdfffefbf5f
	.quad	-1153274466126790739            # 0xeffebefbbdfbffad
.LCPI1_1142:
	.quad	-597998025326987777             # 0xf7b37bf6dbfff5ff
	.quad	-77689331519588609              # 0xfeebfdf6efeff6ff
.LCPI1_1143:
	.quad	-166633203665207427             # 0xfdaffffbefbfff7d
	.quad	-154407166667669506             # 0xfddb6f7fffffbffe
.LCPI1_1144:
	.quad	-1206165128110099               # 0xfffbb6ffcbff9fed
	.quad	-20302484354368721              # 0xffb7deff7ffffb2f
.LCPI1_1145:
	.quad	-9326336934152193               # 0xffdeddbef7fbf7ff
	.quad	-360991657631940611             # 0xfafd7ffffff7fffd
.LCPI1_1146:
	.quad	-288551450747871754             # 0xfbfedbfbfebfddf6
	.quad	-3377742672330825               # 0xfff3fff5ffdf7fb7
.LCPI1_1147:
	.quad	-4721039064126455845            # 0xbe7b7ffbfbffffdb
	.quad	-180152781223764041             # 0xfd7ff7fffddbdfb7
.LCPI1_1148:
	.quad	-4623229249976145989            # 0xbfd6fd7df7f9e7bb
	.quad	-5224176826189350149            # 0xb77ffedaff27fafb
.LCPI1_1149:
	.quad	-2324420917096644611            # 0xdfbdff7dbff77ffd
	.quad	-1802565750855174146            # 0xe6fbfffffffdf7fe
.LCPI1_1150:
	.quad	-4905686769049010435            # 0xbbeb7fdfff7ffefd
	.quad	9203101303041682797             # 0x7fb7fbdfffbbed6d
.LCPI1_1151:
	.quad	3458618545060577239             # 0x2fff7b3dffe9ffd7
	.quad	-72077419608604689              # 0xfeffedf7ffe6ffef
.LCPI1_1152:
	.quad	-2470260146954142209            # 0xddb7df7bfdfe7dff
	.quad	-1297071886718732545            # 0xedffdffdbffbf6ff
.LCPI1_1153:
	.quad	-288318337082065301             # 0xfbffaffffffdfe6b
	.quad	-36028797036266114              # 0xff7ffffffef7fd7e
.LCPI1_1154:
	.quad	-9306850541439553               # 0xffdeef77ff7ff5bf
	.quad	-1337064193411105               # 0xfffb3ff27bb5b7df
.LCPI1_1155:
	.quad	-40568818237706442              # 0xff6fdedfeffbef36
	.quad	-576601562873463305             # 0xf7ff7feefbfdfdf7
.LCPI1_1156:
	.quad	-9158108068725777               # 0xffdf76bfcdbfbbef
	.quad	-1441151881045942273            # 0xebffffffeededfff
.LCPI1_1157:
	.quad	-236439016542621697             # 0xfcb7fff797ef2fff
	.quad	-333345674735124647             # 0xfb5fb7dffdffff59
.LCPI1_1158:
	.quad	6773061967905804143             # 0x5dfebff97ebbcf6f
	.quad	-18314290305957922              # 0xffbeef3fffffffde
.LCPI1_1159:
	.quad	-2892454455549111345            # 0xd7dbefff5fffd3cf
	.quad	-2252970196471825               # 0xfff7feef7fbfefef
.LCPI1_1160:
	.quad	-1125968635920641               # 0xfffbffefff6d7eff
	.quad	-6989727634657714305            # 0x9eff7fbfdb7edf7f
.LCPI1_1161:
	.quad	-306244775768785041             # 0xfbbfffffbdfb7f6f
	.quad	8637866701363328694             # 0x77dfddffdfefb6b6
.LCPI1_1162:
	.quad	-4688250532135976961            # 0xbeeffcfafdffbfff
	.quad	-180425597678587905             # 0xfd7effdff5faefff
.LCPI1_1163:
	.quad	-164381940995342349             # 0xfdb7ff7edf7bbff3
	.quad	-4649421395750551553            # 0xbf79efdfcf2fffff
.LCPI1_1164:
	.quad	-20837955109127177              # 0xffb5f7fd7fdffbf7
	.quad	-162131786148642822             # 0xfdbffdffdfcf7ffa
.LCPI1_1165:
	.quad	-4652299781081661697            # 0xbf6fb5ff7ffffeff
	.quad	-18581774831460361              # 0xffbdfbf967dfdff7
.LCPI1_1166:
	.quad	-19298641000796173              # 0xffbb6ffcfe7feff3
	.quad	-648518348757270785             # 0xf6ffffff6ffffeff
.LCPI1_1167:
	.quad	-5102283880662547               # 0xffeddf7ff5bff9ed
	.quad	-4613938094329167906            # 0xbff7ffbfb7ddffde
.LCPI1_1168:
	.quad	-4621467295418419457            # 0xbfdd3ffafb7ff6ff
	.quad	-1170950746657533970            # 0xefbff27ff7ffcfee
.LCPI1_1169:
	.quad	-2535473838817802               # 0xfff6fdfffe7ffdf6
	.quad	-2307111985319446533            # 0xdffb7ddf79fcf7fb
.LCPI1_1170:
	.quad	9074747743003443198             # 0x7deffafdffff7ffe
	.quad	-650788361120006149             # 0xf6f7ef6eff7bbffb
.LCPI1_1171:
	.quad	-869203799322918945             # 0xf3eff7bfefefffdf
	.quad	-288239808973742083             # 0xfbfff76bbffe5ffd
.LCPI1_1172:
	.quad	-4629700967366049889            # 0xbfbfff7fd7dd3f9f
	.quad	-144452643457185                # 0xffff7c9eff7ff75f
.LCPI1_1173:
	.quad	-2600838130677059649            # 0xdbe7f77ffeb3efbf
	.quad	9070227340365135326             # 0x7ddfebb5be7ffdde
.LCPI1_1174:
	.quad	-88253289991185                 # 0xffffafbbedfff3ef
	.quad	-2342439171434024964            # 0xdf7dfbfbfeb6effc
.LCPI1_1175:
	.quad	3456226798033958654             # 0x2ff6fbf5fffff6fe
	.quad	-576462954346717185             # 0xf7fffdff4bfddfff
.LCPI1_1176:
	.quad	-324575849749939721             # 0xfb7edffbfcfbf9f7
	.quad	-35185538140681                 # 0xffffdfffba7f75f7
.LCPI1_1177:
	.quad	-77705923279259825              # 0xfeebeedfddfef74f
	.quad	-288582222456291465             # 0xfbfebfff65ffff77
.LCPI1_1178:
	.quad	-5208433103929869065            # 0xb7b7edaffbdffcf7
	.quad	-1125900189442049               # 0xfffbffffef27dfff
.LCPI1_1179:
	.quad	-54157546887348225              # 0xff3f97ff7fdf7fff
	.quad	-1170989268152091205            # 0xefbfcf76fbfffdbb
.LCPI1_1180:
	.quad	-2314921816310677505            # 0xdfdfbedf7fffffff
	.quad	-2759026517829747201            # 0xd9b5f7fffedffdff
.LCPI1_1181:
	.quad	-576478378983686406             # 0xf7ffeff7f7fbfefa
	.quad	-2702160910839455747            # 0xda7ffef7df77dffd
.LCPI1_1182:
	.quad	-3494864299269034003            # 0xcf7fbf6fb7dfefed
	.quad	-1369376105364359242            # 0xecfeffaffbd977b6
.LCPI1_1183:
	.quad	-72059793137336449              # 0xfefffdfffb75ff7f
	.quad	-22554429291499521              # 0xffafdeddb5f7efff
.LCPI1_1184:
	.quad	-92323827811369770              # 0xfeb7fff7beffbcd6
	.quad	-4616825142789537815            # 0xbfedbdfe5defffe9
.LCPI1_1185:
	.quad	-180434473060507652             # 0xfd7ef7cd7ffe5ffc
	.quad	9079113843010697211             # 0x7dff7defdffbf7fb
.LCPI1_1186:
	.quad	-4647723616375537921            # 0xbf7ff7fedfbdfeff
	.quad	9222772775082982319             # 0x7ffddef97ef6fbaf
.LCPI1_1187:
	.quad	-4611846551421196289            # 0xbfff6dfeffede7ff
	.quad	-298433981509011459             # 0xfbdbbfdfff3ff7fd
.LCPI1_1188:
	.quad	8930286011041112039             # 0x7beebfcff6bedfe7
	.quad	-576746625352880165             # 0xf7fefbfffe6fafdb
.LCPI1_1189:
	.quad	-2630684940735350819            # 0xdb7dedfbff7ff7dd
	.quad	-180708586467886147             # 0xfd7dfe7f7fb7fbbd
.LCPI1_1190:
	.quad	3458757912378998738             # 0x2ffff9fefb6bffd2
	.quad	-2891478378601252885            # 0xd7df67bbffbff7eb
.LCPI1_1191:
	.quad	-144155329108639745             # 0xfdffdb7defffffff
	.quad	8070149162429054718             # 0x6ffeede7defffefe
.LCPI1_1192:
	.quad	-4683762495290146983            # 0xbeffeed37feeff59
	.quad	9220834216642600831             # 0x7ff6fbddafbfdf7f
.LCPI1_1193:
	.quad	-585895386904788993             # 0xf7de7b3ff3ffffff
	.quad	-4611687277129646113            # 0xbffffedaef7fbfdf
.LCPI1_1194:
	.quad	-1173223437091479625            # 0xefb7df7ffdffdfb7
	.quad	-1748562206466899970            # 0xe7bbdbefffddfffe
.LCPI1_1195:
	.quad	-4611697324928860545            # 0xbffff5b77ffefe7f
	.quad	8788770203759529983             # 0x79f7fbef779fcfff
.LCPI1_1196:
	.quad	-19426756101443589              # 0xffbafb77df6f6ffb
	.quad	-1198467674300675               # 0xfffbbdffffff9efd
.LCPI1_1197:
	.quad	-1152992011897799362            # 0xefffbfdfbdf7fd3e
	.quad	-4614221776918184037            # 0xbff6fdbdb7eb7f9b
.LCPI1_1198:
	.quad	-2305869539235069975            # 0xdfffe7deff7fffe9
	.quad	-433225311253988873             # 0xf9fcdfdfeeff79f7
.LCPI1_1199:
	.quad	-1146044983279618               # 0xfffbedad9bdffffe
	.quad	-2305984897820983345            # 0xdfff7ef3fbf6ffcf
.LCPI1_1200:
	.quad	8070440559199645567             # 0x6ffff6edf7ffef7f
	.quad	9194094232478937083             # 0x7f97fbfdf65feffb
.LCPI1_1201:
	.quad	-616993148958147585             # 0xf76fffffff7ffbff
	.quad	-563501890372099                # 0xfffdff7f7dfe7dfd
.LCPI1_1202:
	.quad	-4683745880761827330            # 0xbefffdefdefdfffe
	.quad	-2594073385706259493            # 0xdbffffffebaefbdb
.LCPI1_1203:
	.quad	-20913286686445569              # 0xffb5b379fff7efff
	.quad	-144260358507364361             # 0xfdff7bf7dfff7ff7
.LCPI1_1204:
	.quad	-297325570974835761             # 0xfbdfaff7ef679bcf
	.quad	-148689225301196865             # 0xfdefbfeff7fe7fbf
.LCPI1_1205:
	.quad	-1369129818985336833            # 0xecffdfaefffbefff
	.quad	-4611694976118687745            # 0xbffff7da5ffdf7ff
.LCPI1_1206:
	.quad	-432952503240763017             # 0xf9fdd7fdffb7d977
	.quad	-1155173373215768866            # 0xeff7ffeffb7bfede
.LCPI1_1207:
	.quad	-2918332582163663907            # 0xd77ffffa7fafb3dd
	.quad	8928310393617506175             # 0x7be7baffafffdf7f
.LCPI1_1208:
	.quad	-5188288135419003649            # 0xb7ff7f6df7f9fcff
	.quad	-5067786536222725               # 0xffedfedfffb5fffb
.LCPI1_1209:
	.quad	-288617406425990673             # 0xfbfe9fff7dfbf9ef
	.quad	-1143492112810017               # 0xfffbeffffecfffdf
.LCPI1_1210:
	.quad	-109353204545822759             # 0xfe7b7fd6fffedfd9
	.quad	-647062595309569                # 0xfffdb37fffdbefff
.LCPI1_1211:
	.quad	-4620750393361564194            # 0xbfdfcbffbfeffdde
	.quad	-46180590571554817              # 0xff5beeff5f76f7ff
.LCPI1_1212:
	.quad	-144678140196196865             # 0xfdfdffff7ed76dff
	.quad	-4755841171309461513            # 0xbdffdba6f7ebfff7
.LCPI1_1213:
	.quad	-293299399646904581             # 0xfbedfdbfff35fefb
	.quad	-1315337101923058305            # 0xedbefbdfeffbfd7f
.LCPI1_1214:
	.quad	-72341302934503426              # 0xfefefdf7dffffffe
	.quad	-6953557841840063637            # 0x9f7ffffbfffdbb6b
.LCPI1_1215:
	.quad	-2342153420833628171            # 0xdf7effdf7dbedff5
	.quad	8989184856214714367             # 0x7cbffffffeffb7ff
.LCPI1_1216:
	.quad	-4621819117890961813            # 0xbfdbffffedfffe6b
	.quad	6881500202436296692             # 0x5f7ffff96ffe7ff4
.LCPI1_1217:
	.quad	-17662516134465                 # 0xffffefef9ffffdbf
	.quad	-45255932963202177              # 0xff5f37f7ffbfdb7f
.LCPI1_1218:
	.quad	-281475247510041                # 0xfffeffffefdbede7
	.quad	-1729716784951726893            # 0xe7fecfbf9eebecd3
.LCPI1_1219:
	.quad	-9087740662597665               # 0xffdfb6bf7dfeb7df
	.quad	-150871155526337539             # 0xfde7ff7bbffffbfd
.LCPI1_1220:
	.quad	4608026835128676275             # 0x3ff2fffdff4fefb3
	.quad	-140892174878725                # 0xffff7fdbfbf6f7fb
.LCPI1_1221:
	.quad	-59391228810137625              # 0xff2cfffdf7ff6fe7
	.quad	8070450222991392215             # 0x6fffffb7fedfbdd7
.LCPI1_1222:
	.quad	-2882303905941160961            # 0xd7ffffde5fa7fbff
	.quad	8786482122048073725             # 0x79efdaefedfeeffd
.LCPI1_1223:
	.quad	9223372032423215095             # 0x7ffffffef7dbbff7
	.quad	-4936667879979483141            # 0xbb7d6eb7ffbdfffb
.LCPI1_1224:
	.quad	7745627841113619901             # 0x6b7dff7bbff3fdbd
	.quad	-5765733423092203617            # 0xaffbfffff6fdff9f
.LCPI1_1225:
	.quad	-6994161006730618881            # 0x9eefbf9efbeed7ff
	.quad	-2305914065152901723            # 0xdfffbf5ffffbfda5
.LCPI1_1226:
	.quad	7916201969033670394             # 0x6ddbffbfbe7feefa
	.quad	-901300468150447363             # 0xf37defffdfffd2fd
.LCPI1_1227:
	.quad	-2306410426067943425            # 0xdffdfbeff7f67fff
	.quad	9210841933549633278             # 0x7fd37beffb7f7efe
.LCPI1_1228:
	.quad	-2306557708951625987            # 0xdffd75fbffffdefd
	.quad	9222808948254428655             # 0x7ffdffdfb7ffcdef
.LCPI1_1229:
	.quad	-20266541996312577              # 0xffb7ffaffb7bf7ff
	.quad	-577745119894585351             # 0xf7fb6fdfddf7bff9
.LCPI1_1230:
	.quad	-1333074288216899585            # 0xed7ff7ff6f9fffff
	.quad	-4702043884014797061            # 0xbebefbfffefffefb
.LCPI1_1231:
	.quad	-4612829665948615041            # 0xbffbefdbcfbfbe7f
	.quad	-2342224285626048538            # 0xdf7ebf6bfef75fe6
.LCPI1_1232:
	.quad	-2427721894348801               # 0xfff75ffff2dfb7ff
	.quad	-2607585421265346563            # 0xdbcffedffbfddffd
.LCPI1_1233:
	.quad	9222809015761698813             # 0x7ffdffef6fbefffd
	.quad	-1163054883076702726            # 0xefdbffbef7edfdfa
.LCPI1_1234:
	.quad	-36595048259862785              # 0xff7dfcff5beebeff
	.quad	-146371523542843475             # 0xfdf7fbdff5feffad
.LCPI1_1235:
	.quad	-144157244597209161             # 0xfdffd9bff3fbf7b7
	.quad	-869282963891234817             # 0xf3efafbffff6d7ff
.LCPI1_1236:
	.quad	-1193745271838781969            # 0xef6ef6ffffbf4def
	.quad	-587755487185863426             # 0xf7d7df7f9b7ffcfe
.LCPI1_1237:
	.quad	-577659359564220433             # 0xf7fbbddf7ffeb7ef
	.quad	-2452210005693269129            # 0xddf7fffdfffe7b77
.LCPI1_1238:
	.quad	-147953035513925                # 0xffff796fffdfefbb
	.quad	-5197725716603995313            # 0xb7ddf7ffdde7fb4f
.LCPI1_1239:
	.quad	-2594636337518740033            # 0xdbfdffff7cdffdbf
	.quad	-4614080754837658113            # 0xbff77dfffaef65ff
.LCPI1_1240:
	.quad	-1206576585311365               # 0xfffbb69fff3cfb7b
	.quad	-844976833495179                # 0xfffcff7f7ffeff75
.LCPI1_1241:
	.quad	-4611686052938285869            # 0xbffffff7f6fd7cd3
	.quad	-2343632124625561601            # 0xdf79beffef7fd7ff
.LCPI1_1242:
	.quad	-184754858006942724             # 0xfd6f9e6f7df7ebfc
	.quad	-1162071683323920482            # 0xefdf7df5ffefff9e
.LCPI1_1243:
	.quad	-4904631100976398355            # 0xbbef3fffdff7ffed
	.quad	-1171547782427967505            # 0xefbdd37fbefbffef
.LCPI1_1244:
	.quad	-1227565219786574081            # 0xeef6cfefbfff36ff
	.quad	-1125954132050049               # 0xfffbfff35fecff7f
.LCPI1_1245:
	.quad	-1441227817021870083            # 0xebffbaefb5ffeffd
	.quad	-585749980721993793             # 0xf7deff7ef7dfa7bf
.LCPI1_1246:
	.quad	-5233342196467376133            # 0xb75f6effef7fdffb
	.quad	-2612159879230038017            # 0xdbbfbe6dfdf75fff
.LCPI1_1247:
	.quad	-651914188607752226             # 0xf6f3ef7fdbff77de
	.quad	-396319144741439489             # 0xfa7ffdd66ffff7ff
.LCPI1_1248:
	.quad	-4517008515269187               # 0xffeff3cdfffffdbd
	.quad	-1172202545485991969            # 0xefbb7ffed77fafdf
.LCPI1_1249:
	.quad	-658654746522427441             # 0xf6dbfcff6be7dfcf
	.quad	-54083877492233409              # 0xff3fdafffdffeb3f
.LCPI1_1250:
	.quad	-1152923773432103265            # 0xeffffdefbf79fe9f
	.quad	-642119094042887                # 0xfffdb7feff7efef9
.LCPI1_1251:
	.quad	-144960162812142610             # 0xfdfcff7ffcffdbee
	.quad	8645785315312647415             # 0x77fbffefdb7fbcf7
.LCPI1_1252:
	.quad	-635693881624577                # 0xfffdbdd6fbfff7ff
	.quad	-1188950301900578947            # 0xef7fffffef9f5f7d
.LCPI1_1253:
	.quad	-576465159023773769             # 0xf7fffbfdfaffb7b7
	.quad	-149688243323169                # 0xffff77dbfd6dfedf
.LCPI1_1254:
	.quad	-2596369716526810129            # 0xdbf7d77fbcd67bef
	.quad	-1125901518635525               # 0xfffbffff9fedfdfb
.LCPI1_1255:
	.quad	-4647858989178224929            # 0xbf7f7cdfefecfedf
	.quad	-144194920123465857             # 0xfdffb77bef9fff7f
.LCPI1_1256:
	.quad	-594756626462068745             # 0xf7beffffd7eb2ff7
	.quad	-864780225405280257             # 0xf3ffaef77fef9fff
.LCPI1_1257:
	.quad	-3458799701434864147            # 0xcfffdfff3ebf6ded
	.quad	-145248345129217                # 0xffff7be5bbfbfeff
.LCPI1_1258:
	.quad	-4688880530803001473            # 0xbeedbfffff3df77f
	.quad	8930592963919044606             # 0x7befd6fbffff5ffe
.LCPI1_1259:
	.quad	-18032102440224865              # 0xffbfefe5fb7f379f
	.quad	-576675174788105217             # 0xf7ff3cfbdff7fbff
.LCPI1_1260:
	.quad	-2312602945350336513            # 0xdfe7fbdfb7deffff
	.quad	-18016602565906953              # 0xffbffdfed3ffedf7
.LCPI1_1261:
	.quad	-279743317157                   # 0xffffffbeddffbb5b
	.quad	-68771971082                    # 0xffffffeffcdefff6
.LCPI1_1262:
	.quad	-216212364753666149             # 0xfcffdbfff2cf7f9b
	.quad	-6953629293016514977            # 0x9f7fbefff9fffe5f
.LCPI1_1263:
	.quad	6773413828558847799             # 0x5dfffffd6ff7ff37
	.quad	-4620750667307286533            # 0xbfdfcbbff77ffffb
.LCPI1_1264:
	.quad	-324340539716009985             # 0xfb7fb5ff5ff7ffff
	.quad	-1157992454383731201            # 0xefedfbff7fdffdff
.LCPI1_1265:
	.quad	7852023746859497210             # 0x6cf7fdfef77df6fa
	.quad	-292875142764175489             # 0xfbef7f9bffffdf7f
.LCPI1_1266:
	.quad	-1442010195651198993            # 0xebfcf35dfdb7ffef
	.quad	-99079466699196705              # 0xfe9fffbffedbf6df
.LCPI1_1267:
	.quad	-4612267664441163825            # 0xbffdeefefbf6bfcf
	.quad	-38280805277246473              # 0xff77ffcf77bbdbf7
.LCPI1_1268:
	.quad	8430716228736888819             # 0x74ffebbdfffbaff3
	.quad	-1152323116228885               # 0xfffbe7f7ddfd9eeb
.LCPI1_1269:
	.quad	-54888746815914049              # 0xff3cfef9bfdeffbf
	.quad	-1271071479171074               # 0xfffb7bf79bfff7fe
.LCPI1_1270:
	.quad	-37166003431538691              # 0xff7bf5b77fbdfffd
	.quad	6915206850492432303             # 0x5ff7bffdfff2ffaf
.LCPI1_1271:
	.quad	-1873814385136369697            # 0xe5fedfbe9eedffdf
	.quad	-2595216877533793553            # 0xdbfbeffffb7ff2ef
.LCPI1_1272:
	.quad	-41095366094946372              # 0xff6dfffb75feffbc
	.quad	4609146103608115191             # 0x3ff6f9f5ff6ffff7
.LCPI1_1273:
	.quad	-81064931272695959              # 0xfedfffdfdfbfdf69
	.quad	-283124277968897                # 0xfffefe7ffdfbffff
.LCPI1_1274:
	.quad	-2533833154232321               # 0xfff6ff7dfeebffff
	.quad	-4524511890965553               # 0xffefecfafbf4fbcf
.LCPI1_1275:
	.quad	-2594078882961592332            # 0xdbfffafffdbb6ff4
	.quad	-576766966300147713             # 0xf7fee97fff7fffff
.LCPI1_1276:
	.quad	-41263606239223841              # 0xff6d66f7fff59fdf
	.quad	-2305922174051451393            # 0xdfffb7fffff77dff
.LCPI1_1277:
	.quad	-1171079389387034657            # 0xefbf7d7fffcdefdf
	.quad	-7030119018368470177            # 0x9e6ffffffd6df35f
.LCPI1_1278:
	.quad	-4582927829041681               # 0xffefb7d9f6b7fdef
	.quad	-1315192112156819982            # 0xedbf7fbdff7f3df2
.LCPI1_1279:
	.quad	-865254354092826641             # 0xf3fdffbfcfefdfef
	.quad	-162130758043993730             # 0xfdbffeef3f9f797e
.LCPI1_1280:
	.quad	4457437696819691259             # 0x3ddbfff7ff5f7efb
	.quad	-81064800008290307              # 0xfedffffe6fb7bffd
.LCPI1_1281:
	.quad	-36631879448790017              # 0xff7ddb7fedfffbff
	.quad	-595636511647729769             # 0xf7bbdfbf9bfbf797
.LCPI1_1282:
	.quad	-140778290610177                # 0xffff7ff67ffeffff
	.quad	-36064122325958851              # 0xff7fdfdf2f9fff3d
.LCPI1_1283:
	.quad	-4629707357620797701            # 0xbfbff9affefffefb
	.quad	-589360277750149                # 0xfffde7faddfffe7b
.LCPI1_1284:
	.quad	-3459397841124852738            # 0xcffdbffdfefffbfe
	.quad	-1803709792838092866            # 0xe6f7ef7ff7fdf7be
.LCPI1_1285:
	.quad	-293933822239580417             # 0xfbebbcbef9efdeff
	.quad	9223363103035490301             # 0x7ffff7dfeedffffd
.LCPI1_1286:
	.quad	-5332266907691155714            # 0xb5fffb7fbf7f7efe
	.quad	-2630113489154760963            # 0xdb7ff5b76ff79efd
.LCPI1_1287:
	.quad	-207269986306                   # 0xffffffcfbdbefffe
	.quad	-1226285318460801321            # 0xeefb5bffffddfed7
.LCPI1_1288:
	.quad	-648520839905607825             # 0xf6fffdbb6bfcff6f
	.quad	-1589814649061385729            # 0xe9efd7fff7fbd9ff
.LCPI1_1289:
	.quad	-585520831220711434             # 0xf7dfcfe7fe7f7ff6
	.quad	-1125941251146881               # 0xfffbfff65faffb7f
.LCPI1_1290:
	.quad	9043192789004713919             # 0x7d7fdfedbfffffbf
	.quad	-4621116053588820737            # 0xbfde7f6ed7fbbcff
.LCPI1_1291:
	.quad	-4626331564850675841            # 0xbfcbf7f3ffe5ff7f
	.quad	-290482178113151497             # 0xfbf7ffff7ffbddf7
.LCPI1_1292:
	.quad	-576496005529340421             # 0xf7ffdfeff7fdf5fb
	.quad	-2382546349125142821            # 0xdeef7eb7ff7df6db
.LCPI1_1293:
	.quad	9216612015892331967             # 0x7fe7fbcbf7dbfdbf
	.quad	8628615410394038263             # 0x77beffffd7ff7ff7
.LCPI1_1294:
	.quad	-90177938745603                 # 0xffffadfbcffe96fd
	.quad	-1157460290776858755            # 0xefefdfff7e9fff7d
.LCPI1_1295:
	.quad	-1234127048274874374            # 0xeedf7ffcffdfeffa
	.quad	-13721924509696263              # 0xffcf3ffb7bf6fef9
.LCPI1_1296:
	.quad	9079251342613806071             # 0x7dfffafdfefbfbf7
	.quad	9149027457008891390             # 0x7ef7dfff9f4f75fe
.LCPI1_1297:
	.quad	-2346375405860045953            # 0xdf6fffffffffbb7f
	.quad	-351913954545666                # 0xfffebfefa5bf6ffe
.LCPI1_1298:
	.quad	-282102041958657                # 0xfffeff6dffffa6ff
	.quad	-585608998553133185             # 0xf7df7fb7eff7df7f
.LCPI1_1299:
	.quad	-1155183268778475523            # 0xeff7f6effdfbfffd
	.quad	-1228532726131329541            # 0xeef35ffe9ffff5fb
.LCPI1_1300:
	.quad	-4505936136765569               # 0xffeffddffd2fff7f
	.quad	-146943149181243459             # 0xfdf5f3fbfedfefbd
.LCPI1_1301:
	.quad	7917323712376581599             # 0x6ddffbf7f7fbaddf
	.quad	-2306476605306306865            # 0xdffdbfbf69f7fecf
.LCPI1_1302:
	.quad	-2346938907850966081            # 0xdf6dff7f77fffbbf
	.quad	-4621152883336812805            # 0xbfde5defbfefe6fb
.LCPI1_1303:
	.quad	-293305721833979905             # 0xfbedf7ffff7effff
	.quad	-293051202068022281             # 0xfbeedf7bffbbfbf7
.LCPI1_1304:
	.quad	-597043884928795201             # 0xf7b6dfbffb7ffdbf
	.quad	-6953576516425353217            # 0x9f7feefffbf7f7ff
.LCPI1_1305:
	.quad	-36147553168793665              # 0xff7f93fdeddfdfbf
	.quad	-288346951665665                # 0xfffef9bffe5fb7ff
.LCPI1_1306:
	.quad	-4621836864968466465            # 0xbfdbefdbddbfdfdf
	.quad	-2305843088973201418            # 0xdfffffed6df67ff6
.LCPI1_1307:
	.quad	-4755803405546438721            # 0xbdfffdfffecfbfbf
	.quad	-77688365222265249              # 0xfeebfed7ebbefe5f
.LCPI1_1308:
	.quad	-308496600517321299             # 0xfbb7fff9efbfddad
	.quad	-162164779565203713             # 0xfdbfdffdfeefbeff
.LCPI1_1309:
	.quad	-360938898555145217             # 0xfafdaffbedfff3ff
	.quad	-1155209055762416129            # 0xeff7df7bfdf77dff
.LCPI1_1310:
	.quad	9149062295035047679             # 0x7ef7ffaefb7beeff
	.quad	-72638434677628931              # 0xfefdefba7fffdffd
.LCPI1_1311:
	.quad	9223366522112568311             # 0x7ffffafbffbfebf7
	.quad	-1246371747168567297            # 0xeeb3ff7fdfef3fff
.LCPI1_1312:
	.quad	-7530794866599676033            # 0x977d3df7fbfdb77f
	.quad	-293015451863089161             # 0xfbeeffffbdfffff7
.LCPI1_1313:
	.quad	-729583689457074753             # 0xf5dfff7ffbfdfdbf
	.quad	-577596690119787921             # 0xf7fbf6deddf7fa6f
.LCPI1_1314:
	.quad	7782211357836795821             # 0x6bfff7ff7edf5fad
	.quad	-578870883536506886             # 0xf7f76fff97fd6ffa
.LCPI1_1315:
	.quad	-4901122563129802887            # 0xbbfbb6fefffeff79
	.quad	-281552558755977                # 0xfffeffedefbfef77
.LCPI1_1316:
	.quad	4593671571582484478             # 0x3fbffff4befbfffe
	.quad	-288257883815085091             # 0xfbffe6fb5f7efbdd
.LCPI1_1317:
	.quad	-1173189352218427907            # 0xefb7fe7ffebffdfd
	.quad	-4758369768753332238            # 0xbdf6dfe7ff7ffff2
.LCPI1_1318:
	.quad	-288380184879505669             # 0xfbff77bfeffedefb
	.quad	9024648889742913534             # 0x7d3dfe59bfbfeffe
.LCPI1_1319:
	.quad	-81346818109358081              # 0xfedeff7ffafbbfff
	.quad	-2994981747491340289            # 0xd66faff7ffffffff
.LCPI1_1320:
	.quad	-1479546965447713801            # 0xeb7797dfb7fb5bf7
	.quad	8617632934873660667             # 0x7797fb7effd9fcfb
.LCPI1_1321:
	.quad	-36591751272612097              # 0xff7dfffeffafbeff
	.quad	6898951679161399733             # 0x5fbdfffffefff9b5
.LCPI1_1322:
	.quad	-146389051675525633             # 0xfdf7ebeedfdfbdff
	.quad	-36099440675784705              # 0xff7fbfbffdedf7ff
.LCPI1_1323:
	.quad	6913024878106902399             # 0x5fefff7ff6ffff7f
	.quad	-145259242960617985             # 0xfdfbef7cf6fd7dff
.LCPI1_1324:
	.quad	-2314867803079313441            # 0xdfdfefff6f77f7df
	.quad	-4507998751817795               # 0xffeffbffbfbfffbd
.LCPI1_1325:
	.quad	9222243902491066335             # 0x7ffbfdf7bffdffdf
	.quad	-2306010293970485509            # 0xdfff67dafb7ebefb
.LCPI1_1326:
	.quad	9056167104309624703             # 0x7dadf7ffeef3ff7f
	.quad	-578712560715433986             # 0xf7f7fffdff7ff7fe
.LCPI1_1327:
	.quad	-40762214441289729              # 0xff6f2efb5ff7f7ff
	.quad	-148627652515828873             # 0xfdeff7effffe6b77
.LCPI1_1328:
	.quad	-216454326349201473             # 0xfcfeffefdfdbffbf
	.quad	-4613515880927740161            # 0xbff97fbfefadbeff
.LCPI1_1329:
	.quad	-1192117445943885826            # 0xef74bf7fbff7fffe
	.quad	-145246035870093345             # 0xfdfbfb7ffaedefdf
.LCPI1_1330:
	.quad	-2377902944378946561            # 0xdefffddee9effbff
	.quad	-144185791051534401             # 0xfdffbfc976b6efbf
.LCPI1_1331:
	.quad	-175969121996809                # 0xffff5ff4fefdeff7
	.quad	-81629977199510531              # 0xfeddfdf7ddfffbfd
.LCPI1_1332:
	.quad	-18617139326424065              # 0xffbddbcf77b6ebff
	.quad	-4756933746437914625            # 0xbdfbf9f5ff7fffff
.LCPI1_1333:
	.quad	-5260839886852194563            # 0xb6fdbdfefbf7fefd
	.quad	-324540665478258833             # 0xfb7efffbf6ffdf6f
.LCPI1_1334:
	.quad	-578748295975797089             # 0xf7f7df7dbbfffe9f
	.quad	-4644515894265857               # 0xffef7fd65ff7f7ff
.LCPI1_1335:
	.quad	9079217264877534207             # 0x7dffdbffa79e7bff
	.quad	-72497407893569537              # 0xfefe6ffddb5dffff
.LCPI1_1336:
	.quad	-298935414641664049             # 0xfbd9f7d2ff7fdfcf
	.quad	8070167931939453887             # 0x6ffefef9fcfffbbf
.LCPI1_1337:
	.quad	-5188147359142384129            # 0xb7ffff76ffefedff
	.quad	-5629774413302019               # 0xffebffbfffedf6fd
.LCPI1_1338:
	.quad	-148632534031532681             # 0xfdeff37f6efbfd77
	.quad	-4620693493097169153            # 0xbfdfffbfdffbfeff
.LCPI1_1339:
	.quad	-2379035299260990497            # 0xdefbf7ffff6efbdf
	.quad	-1153559376003371026            # 0xeffdbbdbfdff6fee
.LCPI1_1340:
	.quad	9078827764364836503             # 0x7dfe79bfffeb7e97
	.quad	-2895884933706809361            # 0xd7cfbffeefffffef
.LCPI1_1341:
	.quad	-162420544867442713             # 0xfdbef75ffef35fe7
	.quad	-1738442232731549705            # 0xe7dfcfffff7fbff7
.LCPI1_1342:
	.quad	-4616279778008239253            # 0xbfefadfffffff36b
	.quad	-290487674597286027             # 0xfbf7faffbfffdf75
.LCPI1_1343:
	.quad	-4713316077281477121            # 0xbe96effffb7ffdff
	.quad	-1690263748101505               # 0xfff9feb6cdb7ba7f
.LCPI1_1344:
	.quad	-20547673335603210              # 0xffb6fffffddedff6
	.quad	-576601489808719877             # 0xf7ff7ffffefd7ffb
.LCPI1_1345:
	.quad	-301882189619005473             # 0xfbcf7fbf7bbdf7df
	.quad	-434958004010352769             # 0xf9f6b7fff6bfff7f
.LCPI1_1346:
	.quad	4593649353598398431             # 0x3fbfebbfb7ef6fdf
	.quad	-9017095699308563               # 0xffdff6ffcdefdfed
.LCPI1_1347:
	.quad	-4573968543515650               # 0xffefbffff5bffbfe
	.quad	-72233516043075685              # 0xfeff5ffff75fff9b
.LCPI1_1348:
	.quad	-873707140982898689             # 0xf3dff7fbfffdffff
	.quad	9200290400491274102             # 0x7fadff5fbfb7ff76
.LCPI1_1349:
	.quad	9213220726484238326             # 0x7fdbef6fdf5bfff6
	.quad	-4611846686716740647            # 0xbfff6ddf7fafbbd9
.LCPI1_1350:
	.quad	-2306125592325623873            # 0xdffefefdfdfe6fbf
	.quad	9142166496812711871             # 0x7edf7ffdd7ffbfbf
.LCPI1_1351:
	.quad	-40690864028279813              # 0xff6f6fdfeffd9bfb
	.quad	-1171253681304372737            # 0xefbedefb7ffbf9ff
.LCPI1_1352:
	.quad	-1130956241033222               # 0xfffbfb66baff27fa
	.quad	-40602772143407109              # 0xff6fbffe6d7efffb
.LCPI1_1353:
	.quad	9078966440263864189             # 0x7dfef7dfff9ecf7d
	.quad	-5909004735843663905            # 0xadfeff7fffefffdf
.LCPI1_1354:
	.quad	-2305846310500042785            # 0xdffffcff5bfff7df
	.quad	-3458799701600571393            # 0xcfffdfff34deefff
.LCPI1_1355:
	.quad	-1299605225943109645            # 0xedf6dfeebf6b6ff3
	.quad	-141016728537089                # 0xffff7fbefbfcf7ff
.LCPI1_1356:
	.quad	7781938681081757167             # 0x6bfefffffdbffdef
	.quad	-19157934092059201              # 0xffbbeff5dfcffdbf
.LCPI1_1357:
	.quad	-6954124090865092611            # 0x9f7dfcfbdffff7fd
	.quad	-2486268538009161731            # 0xdd7effefffbbeffd
.LCPI1_1358:
	.quad	9142000750191161343             # 0x7edee93ef37fafff
	.quad	-288230380484428833             # 0xfbfffffefdbffbdf
.LCPI1_1359:
	.quad	9204713872928242685             # 0x7fbdb67faeff7bfd
	.quad	-649644800299106817             # 0xf6fbff7efffdfdff
.LCPI1_1360:
	.quad	-36028831392474503              # 0xff7ffff7ff2dda79
	.quad	8934503875236846957             # 0x7bfdbbefffd7dd6d
.LCPI1_1361:
	.quad	-9328265777119233               # 0xffdedbfddffbffff
	.quad	-3206582725931245601            # 0xd37fedfffdf6dfdf
.LCPI1_1362:
	.quad	-2485987547285554193            # 0xdd7fff7f3ffffbef
	.quad	7926335064929724415             # 0x6dffffbefbdbe7ff
.LCPI1_1363:
	.quad	-585467951826610307             # 0xf7dfffffefffd77d
	.quad	-36921765015884290              # 0xff7cd3d9afbf6dfe
.LCPI1_1364:
	.quad	9151296291678683135             # 0x7effef7ddbdb7fff
	.quad	-703704621777953                # 0xfffd7ffbfffdfbdf
.LCPI1_1365:
	.quad	-2598893646757561410            # 0xdbeedfff6ffefbbe
	.quad	-4785235682543014221            # 0xbd976d7fff7feeb3
.LCPI1_1366:
	.quad	-10170516127905                 # 0xfffff6bffdffbf5f
	.quad	-36592296996675673              # 0xff7dff7fefff5fa7
.LCPI1_1367:
	.quad	-4466783830053                  # 0xfffffbeffeefbfdb
	.quad	-2640455321315704993            # 0xdb5b37dfffafff5f
.LCPI1_1368:
	.quad	-2306691832459296769            # 0xdffcfbffeff7ffff
	.quad	8637899648595111934             # 0x77dffbf6fffbaffe
.LCPI1_1369:
	.quad	-2305862819792299313            # 0xdfffedfb7d7fdacf
	.quad	-2450591516023391235            # 0xddfdbffffdd6fbfd
.LCPI1_1370:
	.quad	-1156306116146233421            # 0xeff3f9b6b77dffb3
	.quad	-5260204502283206913            # 0xb6ffffdffb7fbeff
.LCPI1_1371:
	.quad	9025213084838121471             # 0x7d3fff7ba7fbcfff
	.quad	-594756909325912066             # 0xf7beffbdfbeb77fe
.LCPI1_1372:
	.quad	-36591886559887505              # 0xff7dffdf7fefbf6f
	.quad	-468409683095592961             # 0xf97fdfdffdbbdfff
.LCPI1_1373:
	.quad	-731839346688279053             # 0xf5d7fbfddbfdbdf3
	.quad	-577032499164610689             # 0xf7fdf7ffcf6fff7f
.LCPI1_1374:
	.quad	-2360168865417135113            # 0xdf3efeebeedffbf7
	.quad	-1172079468290768901            # 0xefbbefeefbfffffb
.LCPI1_1375:
	.quad	-4725472587071619489            # 0xbe6bbfb7fbbffe5f
	.quad	9200008926323789183             # 0x7facff5feff3cd7f
.LCPI1_1376:
	.quad	-5773773335431512097            # 0xafdf6fbdfffb7fdf
	.quad	-361976854443197441             # 0xfaf9fff7fdfffbff
.LCPI1_1377:
	.quad	-144682624177143811             # 0xfdfdfbeb7cbffffd
	.quad	-4755942219073060961            # 0xbdff7fbff3ddff9f
.LCPI1_1378:
	.quad	-6990220078088275969            # 0x9efdbfdfefbeb7ff
	.quad	-36033195115815953              # 0xff7ffbfffcffdbef
.LCPI1_1379:
	.quad	-1170936454031081537            # 0xefbfff7fbaebffbf
	.quad	-2882375236253254659            # 0xd7ffbefe7dbdfbfd
.LCPI1_1380:
	.quad	-1445765577577628673            # 0xebef9bddffff7bff
	.quad	-650772413906291009             # 0xf6f7fdefff7df6bf
.LCPI1_1381:
	.quad	-5193222528722543749            # 0xb7edf79fffefdb7b
	.quad	5437805179466415598             # 0x4b76f6ffffdffdee
.LCPI1_1382:
	.quad	-1298338583188344833            # 0xedfb5feffedfefff
	.quad	-4611830501127290885            # 0xbfff7c97fffefffb
.LCPI1_1383:
	.quad	-288521291483386451             # 0xfbfef769fefeedad
	.quad	-1739515356080554537            # 0xe7dbffffff7b3dd7
.LCPI1_1384:
	.quad	-298374470966453249             # 0xfbdbf5ffdfffdbff
	.quad	-38315920942694594              # 0xff77dfdf76f7ff3e
.LCPI1_1385:
	.quad	-140751514143041                # 0xffff7ffcbbff76bf
	.quad	-653244053827772689             # 0xf6ef35fe7bf59eef
.LCPI1_1386:
	.quad	-1153484463285216386            # 0xeffdfffdf7f3db7e
	.quad	-1162210179912040481            # 0xefdeffffbfffffdf
.LCPI1_1387:
	.quad	-72638136211144867              # 0xfefdeffffdfcff5d
	.quad	-434672203080933386             # 0xf9f7bbef2d9fdff6
.LCPI1_1388:
	.quad	-72202738716381193              # 0xfeff7bfddeffeff7
	.quad	-9578983990493237               # 0xffddf7f6fdefffcb
.LCPI1_1389:
	.quad	9186428360228593590             # 0x7f7cbfebfdffdfb6
	.quad	-4629700451430825986            # 0xbfbffff7f7fffffe
.LCPI1_1390:
	.quad	-2306969321451102469            # 0xdffbff9fff2edefb
	.quad	9203096902851362303             # 0x7fb7f7df7ff3fdff
.LCPI1_1391:
	.quad	9077796697328713727             # 0x7dfacfffff7dffff
	.quad	-36603858847286273              # 0xff7df4fbfbffbbff
.LCPI1_1392:
	.quad	-2305917776139124801            # 0xdfffbbfff7f7ffbf
	.quad	-147343148060738                # 0xffff79fdffffefbe
.LCPI1_1393:
	.quad	-4976620548378347525            # 0xbaef7dfa7fffb7fb
	.quad	-468419441358012425             # 0xf97fd6fff7f7fff7
.LCPI1_1394:
	.quad	-1747432664979210785            # 0xe7bfdf3fdefffddf
	.quad	-42221280870729857              # 0xff69fff7ffbcf77f
.LCPI1_1395:
	.quad	9223090560665911230             # 0x7ffeffffb7bfffbe
	.quad	-171157140369571909             # 0xfd9fed7cd77fffbb
.LCPI1_1396:
	.quad	-14777470943913217              # 0xffcb7ff7edb59aff
	.quad	-2306406528535569929            # 0xdffdff7b6efed9f7
.LCPI1_1397:
	.quad	-19299177846542337              # 0xffbb6f7fffffefff
	.quad	-79167320359041                 # 0xffffb7ff6bfdff7f
.LCPI1_1398:
	.quad	-568052643266769                # 0xfffdfb5beffbff2f
	.quad	-1126175456908046               # 0xfffbffbfd7efacf2
.LCPI1_1399:
	.quad	-573979975770369                # 0xfffdf5f7df6f9eff
	.quad	-18019434364928067              # 0xffbffb6b7f9fffbd
.LCPI1_1400:
	.quad	9150997465496678303             # 0x7efedfb5f76def9f
	.quad	-7782433875820552209            # 0x93ff3d9f7fbfdfef
.LCPI1_1401:
	.quad	-148664014783119873             # 0xfdefd6ddbff7fdff
	.quad	9139756341152167934             # 0x7ed6eff7bfffb7fe
.LCPI1_1402:
	.quad	-2342575633262444547            # 0xdf7d7fdf7fe7fffd
	.quad	-3494864780437528708            # 0xcf7fbeffafff5f7c
.LCPI1_1403:
	.quad	-4755805880165863681            # 0xbdfffbbfd3ffeeff
	.quad	-40551105532411953              # 0xff6feefbff7dbfcf
.LCPI1_1404:
	.quad	-2261772761891841               # 0xfff7f6edfdf6fbff
	.quad	-1155190897682432001            # 0xeff7efffbfdfbfff
.LCPI1_1405:
	.quad	-361422700586991617             # 0xfafbf7f7fdbfffff
	.quad	-2601391734759895049            # 0xdbe5ffffffffcff7
.LCPI1_1406:
	.quad	-4757354270973788166            # 0xbdfa7b7effeb7ffa
	.quad	-577595482663026947             # 0xf7fbf7f7fffffefd
.LCPI1_1407:
	.quad	-2322171795865681               # 0xfff7bfff3effffaf
	.quad	-344671256897                   # 0xffffffafbffdfebf
.LCPI1_1408:
	.quad	-3243155098276200449            # 0xd2fdff9effbfffff
	.quad	7638104813401242111             # 0x69ffffdbfffb79ff
.LCPI1_1409:
	.quad	-18014467299230529              # 0xffbfffeffbcfbcbf
	.quad	-6917669799489177607            # 0x9fff7ff7fffff7f9
.LCPI1_1410:
	.quad	-1193735378511598604            # 0xef6effff77ffebf4
	.quad	-5199705124724818509            # 0xb7d6efbcffffbdb3
.LCPI1_1411:
	.quad	-4521484442279953               # 0xffefefbbddf5dfef
	.quad	6917519679592071167             # 0x5ffff77f7cdbffff
.LCPI1_1412:
	.quad	-144115778098168321             # 0xfdffff769fedfdff
	.quad	-2634614614691677569            # 0xdb6ff7f77b3ffa7f
.LCPI1_1413:
	.quad	-2468258632033108497            # 0xddbefbd9ffdffdef
	.quad	-5783783559890374657            # 0xafbbdf7efefd6fff
.LCPI1_1414:
	.quad	-2675771516784738305            # 0xdaddbffb79efffff
	.quad	-4540024205348947               # 0xffefdedf3df7efad
.LCPI1_1415:
	.quad	-2256270874644481               # 0xfff7fbeeffffefff
	.quad	-5477012681783312405            # 0xb3fdbdfbfffeffeb
.LCPI1_1416:
	.quad	-180706935065018378             # 0xfd7dfffffefffff6
	.quad	-11558170392561921              # 0xffd6efe7bf7f76ff
.LCPI1_1417:
	.quad	-36028797657169969              # 0xff7fffffd9f5bfcf
	.quad	-1152922743707276481            # 0xeffffedf7fdbeb3f
.LCPI1_1418:
	.quad	-173811352253497421             # 0xfd967f7efaffffb3
	.quad	-5084176139681845               # 0xffedeff7ff37ffcb
.LCPI1_1419:
	.quad	-598152866726995                # 0xfffddffbaedb7bad
	.quad	-5280472796477145121            # 0xb6b7fdf7ffddbfdf
.LCPI1_1420:
	.quad	-4719913151603214337            # 0xbe7f7ffeebfef7ff
	.quad	6917524558586838967             # 0x5ffffbef779bffb7
.LCPI1_1421:
	.quad	-18436645343985665              # 0xffbe7ff7ff6bffff
	.quad	-45037098000001057              # 0xff5ffeff7bfed7df
.LCPI1_1422:
	.quad	-2310386192354447492            # 0xdfefdbffbebeef7c
	.quad	3449473640429354742             # 0x2fdefdfff7dd7ef6
.LCPI1_1423:
	.quad	-4684309038736351233            # 0xbefdfdbf6ff7dfff
	.quad	-10591393555073                 # 0xfffff65dffbfdd7f
.LCPI1_1424:
	.quad	-1747434657357512706            # 0xe7bfdd6ffbffbffe
	.quad	-36116916896596113              # 0xff7fafdafdfeff6f
.LCPI1_1425:
	.quad	-2596361539963387977            # 0xdbf7deef7dfeffb7
	.quad	-675540025718358273             # 0xf69fffecff7fbeff
.LCPI1_1426:
	.quad	-46724850701567105              # 0xff59fffeefbffb7f
	.quad	8934816110754552830             # 0x7bfed7e9fef65bfe
.LCPI1_1427:
	.quad	-1298162696207731202            # 0xedfbffe7dfdff5fe
	.quad	-73326707582435331              # 0xfefb7dbf79fffffd
.LCPI1_1428:
	.quad	-310748924044386497             # 0xfbafff7fffffdf3f
	.quad	-4612812752648438017            # 0xbffbff3dbeff7eff
.LCPI1_1429:
	.quad	-649742103395436801             # 0xf6fba6ffdb7ff6ff
	.quad	-1157993020277162579            # 0xefedfb7bbdff7dad
.LCPI1_1430:
	.quad	4608024574905286611             # 0x3ff2fdefbf7fffd3
	.quad	-2199367254147                  # 0xfffffdffeb7eff7d
.LCPI1_1431:
	.quad	-1211507882181787786            # 0xef2fdbfffff7ff76
	.quad	-1170971130438090826            # 0xefbfdff5ffffffb6
.LCPI1_1432:
	.quad	-5192720894326277159            # 0xb7efbfdbdbeefbd9
	.quad	-1152991942378820617            # 0xefffbfefed9f6bf7
.LCPI1_1433:
	.quad	4465032882099713279             # 0x3df6fbbfdffdf4ff
	.quad	-4611705122447188001            # 0xbfffee9fffaf9fdf
.LCPI1_1434:
	.quad	-18366250820599825              # 0xffbebffdfffb7fef
	.quad	-4773820106744561729            # 0xbdbffbe7dbdf7fbf
.LCPI1_1435:
	.quad	-2598719956141147141            # 0xdbef7df7ef7cfbfb
	.quad	-2328651965619576841            # 0xdfaef75fffbadff7
.LCPI1_1436:
	.quad	-4672924680489                  # 0xfffffbbffffbfed7
	.quad	-333849389011321857             # 0xfb5dedbfdf7fbbff
.LCPI1_1437:
	.quad	-151433555726046274             # 0xfde5fffbbfdfebbe
	.quad	-83316636056324353              # 0xfed7fff5fffb76ff
.LCPI1_1438:
	.quad	-2314859024425689217            # 0xdfdff7fb5fffdf7f
	.quad	-1153208485732164114            # 0xeffefafdfff7ddee
.LCPI1_1439:
	.quad	-2551141871124585               # 0xfff6efbffeffff97
	.quad	-76578790146509957              # 0xfeefeffefffcf37b
.LCPI1_1440:
	.quad	8899112862574706557             # 0x7b7fffffbddfff7d
	.quad	-666673551270477829             # 0xf6bf7feff35ffffb
.LCPI1_1441:
	.quad	-325525811107479809             # 0xfb7b7fffdfb7beff
	.quad	9223370868589591485             # 0x7ffffeeffdf7fbbd
.LCPI1_1442:
	.quad	-2749852811298                  # 0xfffffd7fbfffffde
	.quad	-6954683724571084035            # 0x9f7bffffffbffafd
.LCPI1_1443:
	.quad	9223363094728146927             # 0x7ffff7ddffb7ffef
	.quad	-5765737821542694914            # 0xaffbfbffdee9bffe
.LCPI1_1444:
	.quad	-73203597077651457              # 0xfefbedb75fe7dfff
	.quad	-1189517718481601105            # 0xef7dfbeff7defdaf
.LCPI1_1445:
	.quad	-4436702562561                  # 0xfffffbf6ffeb76ff
	.quad	-3179684290615050241            # 0xd3df7dfbffffffff
.LCPI1_1446:
	.quad	-148900813547799065             # 0xfdeeff7fbdb77de7
	.quad	8571475955810041822             # 0x76f3fff7dadbffde
.LCPI1_1447:
	.quad	-4688247246452555781            # 0xbeeffff7fffdfffb
	.quad	-2253047904338945               # 0xfff7fedd67fffbff
.LCPI1_1448:
	.quad	4539621827319693307             # 0x3efff9fffffffffb
	.quad	-589972702773649569             # 0xf7cffef3dfffdf5f
.LCPI1_1449:
	.quad	-1191801335595737153            # 0xef75deffecfadfbf
	.quad	-5188164364661723237            # 0xb7ffefff97ff6f9b
.LCPI1_1450:
	.quad	-292804344858937473             # 0xfbefbfffebfdf77f
	.quad	-144120136031338499             # 0xfdfffb7ff6defffd
.LCPI1_1451:
	.quad	-5188151177367261193            # 0xb7fffbfdffffeff7
	.quad	-325974411578523939             # 0xfb79e7ffeffebedd
.LCPI1_1452:
	.quad	-669619899629635                # 0xfffd9efbf7bf7fbd
	.quad	9223369528525582303             # 0x7ffffdb7fbedefdf
.LCPI1_1453:
	.quad	-26547273072897                 # 0xffffe7dafb37feff
	.quad	-1171534038804992642            # 0xefbddfffaebfed7e
.LCPI1_1454:
	.quad	9223372036315774718             # 0x7fffffffdfdf7efe
	.quad	-4649404782606304263            # 0xbf79fefbdbbfbbf9
.LCPI1_1455:
	.quad	-2344476627662348419            # 0xdf76beedbffadf7d
	.quad	-171137610541171017             # 0xfd9fff3ffbfbfeb7
.LCPI1_1456:
	.quad	-564084093231265                # 0xfffdfef7efffdf5f
	.quad	-54158175058034697              # 0xff3f976d3dfb7ff7
.LCPI1_1457:
	.quad	-235489552232353793             # 0xfcbb5f7ffadfefff
	.quad	-4719783713838203139            # 0xbe7ff5b7fffffefd
.LCPI1_1458:
	.quad	8917127259760885695             # 0x7bbfffff6effffbf
	.quad	-5764629514340815105            # 0xafffebffbffbaeff
.LCPI1_1459:
	.quad	-1689126885656833               # 0xfff9ffbf7ffff6ff
	.quad	-1189584859572470913            # 0xef7dbedf76fffb7f
.LCPI1_1460:
	.quad	-1163195693519640641            # 0xefdb7fadfb7f67bf
	.quad	-140875468456069                # 0xffff7fdfdfbebf7b
.LCPI1_1461:
	.quad	8935132176320551295             # 0x7bfff75fbebfd97f
	.quad	-1128100015374337               # 0xfffbfdffbf4fffff
.LCPI1_1462:
	.quad	-4719772547460120595            # 0xbe7fffdfdfffbfed
	.quad	9074467304988691391             # 0x7deefbef6fbf4bbf
.LCPI1_1463:
	.quad	-5208553711038761029            # 0xb7b77ffef3fdf7bb
	.quad	-301742708338204929             # 0xfbcffe9affefdeff
.LCPI1_1464:
	.quad	-2612098301480141331            # 0xdbbff66f2ddffded
	.quad	-216232710464733186             # 0xfcffc97ed7edfffe
.LCPI1_1465:
	.quad	-324400359487307905             # 0xfb7f7f977fbfff7f
	.quad	-20842342686732801              # 0xffb5f3ffefdecdff
.LCPI1_1466:
	.quad	-1297213198793965866            # 0xedff5f77f7effed6
	.quad	-586102646792808449             # 0xf7ddbebf7fff97ff
.LCPI1_1467:
	.quad	-2450063750422663169            # 0xddff9ffffefeefff
	.quad	9149058162267881471             # 0x7ef7fbecbf5d7fff
.LCPI1_1468:
	.quad	-585487762095014145             # 0xf7dfedfb7ffcfeff
	.quad	-149216922050232329             # 0xfdeddffffeb7fff7
.LCPI1_1469:
	.quad	-282093519142913                # 0xfffeff6ffbff7fff
	.quad	-4612252269130435713            # 0xbffdfcff7bfdb37f
.LCPI1_1470:
	.quad	-2344124708141736010            # 0xdf77feff65fedfb6
	.quad	-732136210130014469             # 0xf5d6edfef3ffeefb
.LCPI1_1471:
	.quad	-290077560786650261             # 0xfbf96ffecffffb6b
	.quad	-36626932451770387              # 0xff7ddfffbdffffed
.LCPI1_1472:
	.quad	-18161733622431777              # 0xffbf79ffdeedffdf
	.quad	-2413930671590342787            # 0xde7ffed7ff6fff7d
.LCPI1_1473:
	.quad	9079256848760033261             # 0x7dfffffffedfcfed
	.quad	8052378920327052795             # 0x6fbfcbf6f6effdfb
.LCPI1_1474:
	.quad	-324269068842502401             # 0xfb7ff6fffbfef6ff
	.quad	-2452774116397220881            # 0xddf5feefbddefbef
.LCPI1_1475:
	.quad	-4620693217816379649            # 0xbfdffffff7ff7eff
	.quad	-293305722094624897             # 0xfbedf7ffeff5df7f
.LCPI1_1476:
	.quad	8899111755413974911             # 0x7b7ffefdf5f3ef7f
	.quad	-1224979373541834818            # 0xeeffffbffedbbfbe
.LCPI1_1477:
	.quad	-4612390839741120545            # 0xbffd7ef7fff6ffdf
	.quad	-2310637088351199305            # 0xdfeef7cf77fbdfb7
.LCPI1_1478:
	.quad	-162147187908935685             # 0xfdbfeffddf5bfffb
	.quad	-288230432255778837             # 0xfbfffff2efefdfeb
.LCPI1_1479:
	.quad	8934851302642940861             # 0x7bfef7ebbef7fbbd
	.quad	-4755960158947938310            # 0xbdff6f6effff6ffa
.LCPI1_1480:
	.quad	-36608943137                    # 0xfffffff779efdbdf
	.quad	6913024860941708719             # 0x5fefff7bf7dfedaf
.LCPI1_1481:
	.quad	-1179943111524093965            # 0xef9ffffdde6feff3
	.quad	-72066665646408737              # 0xfefff7bfd9ffbbdf
.LCPI1_1482:
	.quad	-2252555899994754               # 0xfff7ff4ff5be7d7e
	.quad	9150185999214444510             # 0x7efbfdafbfedffde
.LCPI1_1483:
	.quad	-228836394412053                # 0xffff2fdfdfffd7eb
	.quad	-162978409562513553             # 0xfdbcfbfffff7df6f
.LCPI1_1484:
	.quad	9196315220346912255             # 0x7f9fdff7ff4bbdff
	.quad	-158467119123491                # 0xffff6fdfffa7f3dd
.LCPI1_1485:
	.quad	-288239180841259018             # 0xfbfff7fdff9b6ff6
	.quad	-81351490958000705              # 0xfedefb3fff7ffdbf
.LCPI1_1486:
	.quad	-4616190717836001281            # 0xbfeffeffefedffff
	.quad	-306246449701323267             # 0xfbbffe79ffd3fdfd
.LCPI1_1487:
	.quad	-594512603080837122             # 0xf7bfddeff6dfb7fe
	.quad	-4719772409493718149            # 0xbe7fffffff6ffb7b
.LCPI1_1488:
	.quad	-294985792924422145             # 0xfbe7fffbf6f3efff
	.quad	9213221030363758551             # 0x7fdbefb69ffd7fd7
.LCPI1_1489:
	.quad	-577685625446081539             # 0xf7fba5fbff6fdbfd
	.quad	-4538804401078274               # 0xffefdffb3ff7fffe
.LCPI1_1490:
	.quad	-1153343722510876962            # 0xeffe7ffebbcffede
	.quad	-5260283529606086913            # 0xb6ffb7fffffdbeff
.LCPI1_1491:
	.quad	-1459170694545543169            # 0xebbffbfbfcf3efff
	.quad	-18051781905090569              # 0xffbfddfffffbf7f7
.LCPI1_1492:
	.quad	-2305983749390666753            # 0xdfff7fff5fbef3ff
	.quad	8070344978997173119             # 0x6fff9ffff7fbdb7f
.LCPI1_1493:
	.quad	-5334536023875534849            # 0xb5f7ebbff75fbfff
	.quad	-325385124919656465             # 0xfb7bfff3edf7bfef
.LCPI1_1494:
	.quad	6917448763004903399             # 0x5fffb6ffeedf5fe7
	.quad	-72097210816404033              # 0xfeffdbf7fffde5bf
.LCPI1_1495:
	.quad	-6932236236983764995            # 0x9fcbbfdefb7df7fd
	.quad	-432345710275854355             # 0xf9ffffddfed7ffed
.LCPI1_1496:
	.quad	-144132819470401537             # 0xfdffeff6defdbfff
	.quad	-2306405977152880673            # 0xdffdfffbcff6ffdf
.LCPI1_1497:
	.quad	-3459331880078901250            # 0xcffdfbfbbfb67ffe
	.quad	-81065081058754857              # 0xfedfffbcffcdfed7
.LCPI1_1498:
	.quad	-4611915011126790289            # 0xbfff2fbb7b7ef76f
	.quad	-180461211417313793             # 0xfd7edf7bfdbbfdff
.LCPI1_1499:
	.quad	-81082944914997506              # 0xfedfef7dbeffbefe
	.quad	-5188709862959237253            # 0xb7fdffdedfbfb77b
.LCPI1_1500:
	.quad	9185082505410018300             # 0x7f77f7dfbf9e7bfc
	.quad	-4686439615043734017            # 0xbef66bfffbfff5ff
.LCPI1_1501:
	.quad	-45608038673024001              # 0xff5df7bafffdfbff
	.quad	-324611568023175170             # 0xfb7ebf7fadfefffe
.LCPI1_1502:
	.quad	-1152924322726150181            # 0xeffffd6fdaffffdb
	.quad	-292734254956153121             # 0xfbefffbeffbff6df
.LCPI1_1503:
	.quad	-439105364269531267             # 0xf9e7fbff67beff7d
	.quad	9060960940923551222             # 0x7dbefff7ff6ffdf6
.LCPI1_1504:
	.quad	-2702722760778448945            # 0xda7dfff7fd6fffcf
	.quad	-2341946643890311185            # 0xdf7fbbef7fffefef
.LCPI1_1505:
	.quad	3456367542834690046             # 0x2ff77bf7b3d9f7fe
	.quad	-585468363879219201             # 0xf7dfff9fffbfffff
.LCPI1_1506:
	.quad	-166637592887431682             # 0xfdaffbfdfdb7edfe
	.quad	7493707995721758199             # 0x67feffb7ff7ff5f7
.LCPI1_1507:
	.quad	-4725545996585664515            # 0xbe6b7cf3ffbdfffd
	.quad	5762346857030221823             # 0x4ff7f7efaddfffff
.LCPI1_1508:
	.quad	4584382107630809087             # 0x3f9eff3cdffdafff
	.quad	-328780382432919557             # 0xfb6feffbeff7fffb
.LCPI1_1509:
	.quad	-288275474432401425             # 0xfbffd6fbbcffdfef
	.quad	-1152939097332027398            # 0xefffefffdfdd6ffa
.LCPI1_1510:
	.quad	-40532568445159425              # 0xff6fffd7fffdf7ff
	.quad	9221111370057973247             # 0x7ff7f7ef7e9efdff
.LCPI1_1511:
	.quad	4466145309230890715             # 0x3dfaef7efffbfedb
	.quad	-81065912198766595              # 0xfedffefb7bffdffd
.LCPI1_1512:
	.quad	-1175439657364619330            # 0xefafffdbffdfffbe
	.quad	-1153062310890438665            # 0xefff7feffb7bfff7
.LCPI1_1513:
	.quad	-2306617203115966467            # 0xdffd3fdfef77bffd
	.quad	9223362673792221039             # 0x7ffff77bfdfb7f6f
.LCPI1_1514:
	.quad	9151314064859725503             # 0x7effffa7fffffebf
	.quad	-72640335201697815              # 0xfefdedffffefffe9
.LCPI1_1515:
	.quad	-144164745556264131             # 0xfdffd2ed7ffbfb3d
	.quad	9223213432218435511             # 0x7fff6fbffafdbfb7
.LCPI1_1516:
	.quad	-5197153970019632417            # 0xb7dffffffdf7fadf
	.quad	-79165928243732                 # 0xffffb7ffbef7fdec
.LCPI1_1517:
	.quad	-578771930058850369             # 0xf7f7c9fefedfffbf
	.quad	-2306977980432253953            # 0xdffbf7bfebaffbff
.LCPI1_1518:
	.quad	9222527517434503039             # 0x7ffcffe9fff2df7f
	.quad	-5197470633780740129            # 0xb7dedffef6f97fdf
.LCPI1_1519:
	.quad	-45598963517113345              # 0xff5dfffbf96fbbff
	.quad	-1170935903301407745            # 0xefbffffff4f7ebff
.LCPI1_1520:
	.quad	-11263432548423685              # 0xffd7fbf7bfffe7fb
	.quad	-4899925335358990355            # 0xbbfff7de4ffd97ed
.LCPI1_1521:
	.quad	-324295465778586113             # 0xfb7fdefdf7ff5dff
	.quad	-9025341733767234               # 0xffdfef7fdffb77be
.LCPI1_1522:
	.quad	-109284880810641555             # 0xfe7bbdfadbf5f76d
	.quad	-2644335162040321               # 0xfff69afdbdffdfff
.LCPI1_1523:
	.quad	-576461315103523145             # 0xf7ffff7cf67ffeb7
	.quad	-865967833287360785             # 0xf3fb76d7fdfdfeef
.LCPI1_1524:
	.quad	9220442385957976503             # 0x7ff5977f7efaf9b7
	.quad	-5188146770797924385            # 0xb7fffffffbffefdf
.LCPI1_1525:
	.quad	-4620846088495038849            # 0xbfdf74f6fd7ffe7f
	.quad	-23155723475357705              # 0xffadbbfdffbbeff7
.LCPI1_1526:
	.quad	-603764649838510081             # 0xf79eff3ff66fffff
	.quad	-2918403204305725713            # 0xd77fbfbf7ffed6ef
.LCPI1_1527:
	.quad	-2454463448382210065            # 0xddeffe7f7cff7fef
	.quad	-12704066720366597              # 0xffd2ddb7f7edfffb
.LCPI1_1528:
	.quad	-72198333673791745              # 0xfeff7fff7fff9eff
	.quad	9205348145393819646             # 0x7fbff75dbfffdffe
.LCPI1_1529:
	.quad	-1170936281677725793            # 0xefbfffa7dbfb7f9f
	.quad	-72764618736926865              # 0xfefd7cf6fbf7ff6f
.LCPI1_1530:
	.quad	-2594354999962144771            # 0xdbfeffdf7dff6ffd
	.quad	-72220880130148357              # 0xfeff6b7dfe79f7fb
.LCPI1_1531:
	.quad	-13537651563971857              # 0xffcfe793df6fbaef
	.quad	-2596325204508582466            # 0xdbf7fffb7fdf5dbe
.LCPI1_1532:
	.quad	-1154190375520326145            # 0xeffb7df7f7efadff
	.quad	-2305922208477874433            # 0xdfffb7f7fbfdf6ff
.LCPI1_1533:
	.quad	6910210675696139775             # 0x5fe5ffff67fafdff
	.quad	-4612143966102491909            # 0xbffe5f7fbf7fecfb
.LCPI1_1534:
	.quad	-3243154716363852819            # 0xd2fdfff7eb7ff3ed
	.quad	-1299921897244394641            # 0xedf5bfebf6fefb6f
.LCPI1_1535:
	.quad	-144262557129019393             # 0xfdff79f7f7ef6fff
	.quad	-9007217240523009               # 0xffdffffbcff6beff
.LCPI1_1536:
	.quad	-1356151411385041034            # 0xed2dfb79febfff76
	.quad	7980094547855917023             # 0x6ebefdb5fefbbfdf
.LCPI1_1537:
	.quad	-5188146787944301601            # 0xb7fffffbfdfefbdf
	.quad	-1157460496916414604            # 0xefefdfcf7fbfff74
.LCPI1_1538:
	.quad	-144133334447032389             # 0xfdffef7ef7fdf7bb
	.quad	-36609476871061793              # 0xff7defdfefaffedf
.LCPI1_1539:
	.quad	6629289305606946286             # 0x5bfff77ffdff7dee
	.quad	-1224983496694435842            # 0xeefffbffffcfeffe
.LCPI1_1540:
	.quad	-2310350044882083877            # 0xdfeffcdffbfedfdb
	.quad	-2475079976416707161            # 0xdda6bfdffefffda7
.LCPI1_1541:
	.quad	9205352950925230071             # 0x7fbffbbc9ffdfff7
	.quad	-82219282682872065              # 0xfedbe5ff7dfffeff
.LCPI1_1542:
	.quad	-43352645045879425              # 0xff65faffbff77d7f
	.quad	-4764949147742898214            # 0xbddf7ffef3fbf7da
.LCPI1_1543:
	.quad	-648518347151394833             # 0xf6ffffffcfb7b7ef
	.quad	-1441714840678432897            # 0xebfdfffdadf3ff7f
.LCPI1_1544:
	.quad	-10168559485323585              # 0xffdbdfbfbffff6bf
	.quad	-577674647567878161             # 0xf7fbaff7fbf7b7ef
.LCPI1_1545:
	.quad	-1333347170836815873            # 0xed7effcfffffdfff
	.quad	4611404534709747451             # 0x3ffefffdf6fffefb
.LCPI1_1546:
	.quad	-4611694986864377905            # 0xbffff7d7df7fbfcf
	.quad	-18586694583059521              # 0xffbdf77fefd3fbbf
.LCPI1_1547:
	.quad	-4611743198400874597            # 0xbfffcbfebffdf79b
	.quad	-4945022761744540705            # 0xbb5fbfff7ffedbdf
.LCPI1_1548:
	.quad	-2308179059374621187            # 0xdff7b35feffafdfd
	.quad	-1083473929                     # 0xffffffffbf6b7ff7
.LCPI1_1549:
	.quad	-576472881291132929             # 0xf7fff4f7fffeffff
	.quad	-2324424773039297171            # 0xdfbdfbfbf7dfed6d
.LCPI1_1550:
	.quad	4611263771600223990             # 0x3ffe7ff7ffdbfef6
	.quad	-941815426760384513             # 0xf2edffdbfbf6dfff
.LCPI1_1551:
	.quad	-1585267078519590913            # 0xe9fffffdbeb7efff
	.quad	9192971914652401151             # 0x7f93ff3ffaffbdff
.LCPI1_1552:
	.quad	-580964493664734209             # 0xf7efffdeffffb3ff
	.quad	-182395797122396162             # 0xfd77fffd27fecffe
.LCPI1_1553:
	.quad	9078973106057375739             # 0x7dfefdefffdfeffb
	.quad	-4657858119987119137            # 0xbf5bf6b7dfffbbdf
.LCPI1_1554:
	.quad	9223336833137704951             # 0x7fffdffb7ef2fff7
	.quad	-146508280033706533             # 0xfdf77f7edbeffddb
.LCPI1_1555:
	.quad	-2310356539073955111            # 0xdfeff6f7effefad9
	.quad	8930562607086034853             # 0x7befbb5fffbfdfa5
.LCPI1_1556:
	.quad	-577639703646454529             # 0xf7fbcfbffffdbcff
	.quad	-73816812676448305              # 0xfef9bffffdf7ffcf
.LCPI1_1557:
	.quad	-1152996357431623825            # 0xefffbbebf7f7ff6f
	.quad	-5767037452464160834            # 0xaff75dfdf77fffbe
.LCPI1_1558:
	.quad	-2594144046716887043            # 0xdbffbfbbdf3edffd
	.quad	-1152921504661930009            # 0xeffffffffcb77fe7
.LCPI1_1559:
	.quad	-1224979717140038145            # 0xeeffff6ffecf3dff
	.quad	-4684467108364025895            # 0xbefd6dfbfbf5ffd9
.LCPI1_1560:
	.quad	-2488239001387966466            # 0xdd77ffcfbdff5ffe
	.quad	9196350439071411903             # 0x7f9ffffffedbeebf
.LCPI1_1561:
	.quad	-333267493413462145             # 0xfb5ffefaffe7df7f
	.quad	-2323936598363832337            # 0xdfbfb7f9fdfe7fef
.LCPI1_1562:
	.quad	-1891530020334094337            # 0xe5bfef77dfffb7ff
	.quad	-4611688359487734789            # 0xbffffddeededfbfb
.LCPI1_1563:
	.quad	-290340061909001                # 0xfffef7efefbeeff7
	.quad	-9169935573975073               # 0xffdf6bfdff7fffdf
.LCPI1_1564:
	.quad	-649084631338451235             # 0xf6fdfcf77fe7fedd
	.quad	-2292499057999873               # 0xfff7dafbf7ffffff
.LCPI1_1565:
	.quad	-1154047413179285513            # 0xeffbfffdfb7d7ff7
	.quad	-158606771175557                # 0xffff6fbf7bbebf7b
.LCPI1_1566:
	.quad	9223331904395140079             # 0x7fffdb7feeffdbef
	.quad	9150153348856365047             # 0x7efbdffdbeef3ff7
.LCPI1_1567:
	.quad	-36591768447221779              # 0xff7dfffaffffffed
	.quad	-144220741494145156             # 0xfdff9fffedff7f7c
.LCPI1_1568:
	.quad	-27022147530526733              # 0xff9fff7fff5feff3
	.quad	-4936086083713762561            # 0xbb7f7fdbff7dfaff
.LCPI1_1569:
	.quad	-2614339662072578561            # 0xdbb7ffedbff2fdff
	.quad	-59374167918598                 # 0xffffc9ffdfcff7fa
.LCPI1_1570:
	.quad	-2306977982251533313            # 0xdffbf7bf7f3ffbff
	.quad	-144678834217431059             # 0xfdfdff5de7f3cfed
.LCPI1_1571:
	.quad	8628469691280523231             # 0x77be7b77f7ffffdf
	.quad	-34427972609                    # 0xfffffff7fbeed3ff
.LCPI1_1572:
	.quad	-162131461372117011             # 0xfdbffe4b7dffffed
	.quad	9214364833227309046             # 0x7fdffffefb5d7ff6
.LCPI1_1573:
	.quad	-941885641631727623             # 0xf2edbfffcf7ffff9
	.quad	-18058397228240905              # 0xffbfd7fbbfff6ff7
.LCPI1_1574:
	.quad	9204214136518475263             # 0x7fbbeffdbbcffdff
	.quad	-40532399331868707              # 0xff6fffff5fedffdd
.LCPI1_1575:
	.quad	-1189338429366738945            # 0xef7e9efff7dfdfff
	.quad	-579135043755313673             # 0xf7f67fbefffbf5f7
.LCPI1_1576:
	.quad	-869194899885392149             # 0xf3efffd7ffbffeeb
	.quad	-324329543005643793             # 0xfb7fbfffbefbdbef
.LCPI1_1577:
	.quad	-72059794221961314              # 0xfefffdffbacfef9e
	.quad	-4901254538884819203            # 0xbbfb3ef6ffffd6fd
.LCPI1_1578:
	.quad	-848831589658625                # 0xfffcfbfdfe9fcfff
	.quad	-18296741078384645              # 0xffbeff35ff79bffb
.LCPI1_1579:
	.quad	-288230651675615507             # 0xfbffffbfd97edeed
	.quad	-4543184193454081               # 0xffefdbff7fffffff
.LCPI1_1580:
	.quad	-226343264681459713             # 0xfcdbddffff5bffff
	.quad	-941402130579718145             # 0xf2ef77bfffffffff
.LCPI1_1581:
	.quad	-846074604683793                # 0xfffcfe7fe7bbfdef
	.quad	7483820946117883903             # 0x67dbdf7fdffbf7ff
.LCPI1_1582:
	.quad	-4612460212086391813            # 0xbffd3fdffdf7bbfb
	.quad	-3639189977113595905            # 0xcd7effff3ffb6fff
.LCPI1_1583:
	.quad	-11399805293304065              # 0xffd77feffefbe6ff
	.quad	-288802448930381841             # 0xfbfdf7b3ed3ddfef
.LCPI1_1584:
	.quad	-56576496357606411              # 0xff36fff9eff7fbf5
	.quad	-4633078702383579205            # 0xbfb3ff779fffbfbb
.LCPI1_1585:
	.quad	-10133374341481505              # 0xffdbffbfedfffbdf
	.quad	6897262827169828863             # 0x5fb7ffff7ff6cfff
.LCPI1_1586:
	.quad	-4629718293263155201            # 0xbfbfefbdd7ebffff
	.quad	-370985118824663043             # 0xfad9feffff7ff7fd
.LCPI1_1587:
	.quad	-1159676906384228867            # 0xefe7ffff74be7dfd
	.quad	-2268819620101                  # 0xfffffdefbfcffefb
.LCPI1_1588:
	.quad	-2306423688859297797            # 0xdffdefdffbfed7fb
	.quad	-36029913979420673              # 0xff7ffefbeff7ffff
.LCPI1_1589:
	.quad	-90354017282032137              # 0xfebeff7fffdffdf7
	.quad	-2886966794726803505            # 0xd7ef6efef9f5f7cf
.LCPI1_1590:
	.quad	-4513567206282371               # 0xffeff6ef3dffeb7d
	.quad	-2538502310854721               # 0xfff6fb3edf7fffbf
.LCPI1_1591:
	.quad	-293306838525551745             # 0xfbedf6fbff7ddb7f
	.quad	8014155527239687679             # 0x6f37fffdbfdaddff
.LCPI1_1592:
	.quad	-162169203447697473             # 0xfdbfdbf7fafdefbf
	.quad	-76563530397190177              # 0xfeeffddfefecf7df
.LCPI1_1593:
	.quad	-22518077593755721              # 0xffafffed7fffdfb7
	.quad	-576496521345012517             # 0xf7ffdf77defb6cdb
.LCPI1_1594:
	.quad	-405396551948576001             # 0xfa5fbdfbdfefdaff
	.quad	-148658370140734529             # 0xfdefdbfffedf7bbf
.LCPI1_1595:
	.quad	4394385127577190399             # 0x3cfbfdfdb77f7fff
	.quad	-77126364654207121              # 0xfeedfdfadff7ff6f
.LCPI1_1596:
	.quad	8034384901589168111             # 0x6f7fde7ffffbefef
	.quad	-1173189980345074209            # 0xefb7fdedbf7bfddf
.LCPI1_1597:
	.quad	-580683873452065                # 0xfffdefdefffeffdf
	.quad	-1477180884110017538            # 0xeb7fffcff59ffbfe
.LCPI1_1598:
	.quad	8646607819266453491             # 0x77feebfffb7deff3
	.quad	-4910049528406614053            # 0xbbdbfff7edbfdfdb
.LCPI1_1599:
	.quad	-2359991758127366161            # 0xdf3f9fffeff7ffef
	.quad	-74472121657462790              # 0xfef76bfffaefeffa
.LCPI1_1600:
	.quad	-40682205178169381              # 0xff6f77bffbacf7db
	.quad	-20266748083179667              # 0xffb7ff7fffbfef6d
.LCPI1_1601:
	.quad	7493954593961492467             # 0x67ffdfff9ffb3ff3
	.quad	-650209670641221891             # 0xf6f9fdbfdfe7fefd
.LCPI1_1602:
	.quad	-3476853679127073409            # 0xcfbfbbffff9eed7f
	.quad	3458729325019264734             # 0x2fffdffef7fff6de
.LCPI1_1603:
	.quad	-7214837248825630725            # 0x9bdfbfbf7f7ddffb
	.quad	-4504707880222729               # 0xffeffefdf6fb7ff7
.LCPI1_1604:
	.quad	7491737911394563583             # 0x67f7ffeffefff5ff
	.quad	-617063657818359815             # 0xf76fbfdf5feef7f9
.LCPI1_1605:
	.quad	-2742973786826507273            # 0xd9eeffdfafff7bf7
	.quad	-153406130058430465             # 0xfddefdefff7ff7ff
.LCPI1_1606:
	.quad	-36601917756948737              # 0xff7df6bfedffbeff
	.quad	-1441538928466460697            # 0xebfe9ffb6edbffe7
.LCPI1_1607:
	.quad	-2445934080459265               # 0xfff74f6f97fd7dff
	.quad	-9007203830794243               # 0xffdffffeef3ef7fd
.LCPI1_1608:
	.quad	9076714775745592703             # 0x7df6f7ff7fdafd7f
	.quad	-4757103311756329486            # 0xbdfb5fbdfeedfdf2
.LCPI1_1609:
	.quad	-360375931758534689             # 0xfaffafffd9ee9fdf
	.quad	-2324420357848563842            # 0xdfbdfffff5bfff7e
.LCPI1_1610:
	.quad	-1152921818148896769            # 0xefffffb6ff6fffff
	.quad	-2891524408311032065            # 0xd7df3ddedf3fd6ff
.LCPI1_1611:
	.quad	-1153484463154397185            # 0xeffdfffdffbfffff
	.quad	-3412884646297609               # 0xfff3dfffdeff7ff7
.LCPI1_1612:
	.quad	-4616753668057203873            # 0xbfedfeffdff7fb5f
	.quad	9185078176760098623             # 0x7f77f3efe7fa6f3f
.LCPI1_1613:
	.quad	-162132344507992385             # 0xfdbffd7ddefff6bf
	.quad	-293296925733552129             # 0xfbedffffffefffff
.LCPI1_1614:
	.quad	-324620912496477187             # 0xfb7eb6fffffbfbfd
	.quad	-1369098685840900641            # 0xecfffbffbfffbddf
.LCPI1_1615:
	.quad	-36039794552211841              # 0xff7ff5ff6feff67f
	.quad	9222800288519811069             # 0x7ffdf7ff7797effd
.LCPI1_1616:
	.quad	-4631108355534897153            # 0xbfbaff7cbfffbfff
	.quad	-2882866986382025987            # 0xd7fdffbffdff9afd
.LCPI1_1617:
	.quad	-3465520068987781202            # 0xcfe7ffdbbdfeffae
	.quad	-5909145199602339873            # 0xadfe7fbfbb7f6fdf
.LCPI1_1618:
	.quad	-81223260674983939              # 0xfedf6fdfeff7f7fd
	.quad	-473489290463281793             # 0xf96dd3ffbcfbfd7f
.LCPI1_1619:
	.quad	-72077454597947682              # 0xfeffedefda5ffede
	.quad	-2342998947423848465            # 0xdf7bfedefdaff7ef
.LCPI1_1620:
	.quad	-1189306545675174018            # 0xef7ebbff77fbff7e
	.quad	9205069557555511283             # 0x7fbef9fdf6dbbff3
.LCPI1_1621:
	.quad	-36037593113560065              # 0xff7ff7ffffe7fbff
	.quad	-306253579360962049             # 0xfbbff7fdfeff79ff
.LCPI1_1622:
	.quad	-1873515625717056002            # 0xe5ffef76f7fdbdfe
	.quad	-77688365222338721              # 0xfeebfed7ebbddf5f
.LCPI1_1623:
	.quad	-288231063751753857             # 0xfbffff5fe7d7ff7f
	.quad	8061121446132301814             # 0x6fdedb3edfffbff6
.LCPI1_1624:
	.quad	-9025100678432801               # 0xffdfefb7fffff7df
	.quad	-1333100742793795073            # 0xed7fdfeffff769ff
.LCPI1_1625:
	.quad	-2252074691727370               # 0xfff7ffbffffdeff6
	.quad	-945844020922501527             # 0xf2dfafdfcffcb669
.LCPI1_1626:
	.quad	-342274680855495170             # 0xfb3ffefdbfff7dfe
	.quad	-1152922054430032385            # 0xefffff7ffbfbfdff
.LCPI1_1627:
	.quad	-653025283225436161             # 0xf6effcf6fbffbfff
	.quad	5728508347573862399             # 0x4f7fbffdbdffffff
.LCPI1_1628:
	.quad	-20424601012011073              # 0xffb76feeffffffbf
	.quad	-577032640118015249             # 0xf7fdf7defdf5baef
.LCPI1_1629:
	.quad	-3131409418190915               # 0xfff4dfffedfb7fbd
	.quad	-147499519244779553             # 0xfdf3f9f7fedfbfdf
.LCPI1_1630:
	.quad	-81215426399308037              # 0xfedf76ffff2ff6fb
	.quad	-18586241595351049              # 0xffbdf7e967ffdff7
.LCPI1_1631:
	.quad	-9060285058925058               # 0xffdfcfb7ff7fbdfe
	.quad	-2350905670793503777            # 0xdf5fe7bf7fe6dbdf
.LCPI1_1632:
	.quad	-1170937003702260739            # 0xefbffeffbff76bfd
	.quad	9148778969001064378             # 0x7ef6fdffffdf77ba
.LCPI1_1633:
	.quad	-2882312849748336897            # 0xd7fff7bbfb34deff
	.quad	8070449981417840511             # 0x6fffff7fbff7df7f
.LCPI1_1634:
	.quad	-9289052191981569               # 0xffdeffa7ffcbffff
	.quad	-6958767450372506657            # 0x9f6d7ddf7dfefbdf
.LCPI1_1635:
	.quad	-2634676228237370371            # 0xdb6fbfedf5bedbfd
	.quad	-245446179777937665             # 0xfc97fffffadbfeff
.LCPI1_1636:
	.quad	-901300622232387713             # 0xf37defdbffffff7f
	.quad	-290799935916376066             # 0xfbf6deffbeff7ffe
.LCPI1_1637:
	.quad	-1298320991117641730            # 0xedfb6feff7fff7fe
	.quad	-2356509639161554211            # 0xdf4bfef7effddadd
.LCPI1_1638:
	.quad	8914875453789433143             # 0x7bb7fffdfff7ed37
	.quad	-738643944376664065             # 0xf5bfcf3effef7fff
.LCPI1_1639:
	.quad	-648616202943397889             # 0xf6ffa6fffbfeffff
	.quad	-4504236356370433               # 0xffefff6bbffe7fff
.LCPI1_1640:
	.quad	-4612108239549497354            # 0xbffe7ffdfbfffff6
	.quad	-4909717458422087937            # 0xbbdd2dfbff37beff
.LCPI1_1641:
	.quad	9074744427284496238             # 0x7deff7f9ffbf7f6e
	.quad	-648571432138181122             # 0xf6ffcfb7ffeff5fe
.LCPI1_1642:
	.quad	-2305845365003255813            # 0xdffffddb7ffffffb
	.quad	-3891110294950315018            # 0xc9ffffcd7f9efbf6
.LCPI1_1643:
	.quad	-74309673158836225              # 0xfef7ffbef7fdffff
	.quad	-37181085478560005              # 0xff7be7ffefafdefb
.LCPI1_1644:
	.quad	-1152930319224545348            # 0xeffff7fbafd7dfbc
	.quad	-73220881769336833              # 0xfefbddfef7ff6fff
.LCPI1_1645:
	.quad	-4909137174245475333            # 0xbbdf3dbfef6efbfb
	.quad	-294985775726985281             # 0xfbe7fffff7ffffbf
.LCPI1_1646:
	.quad	-27167605714341930              # 0xff9f7b34dfffafd6
	.quad	-8830462199809                  # 0xfffff7f7ff6ff7ff
.LCPI1_1647:
	.quad	-18581746643636739              # 0xffbdfbfff7ffedfd
	.quad	-5837094039426437185            # 0xaefe79e5bb6fefbf
.LCPI1_1648:
	.quad	-2311059097208225793            # 0xdfed77fedff7ffff
	.quad	-1157742871702143617            # 0xefeedefdfef3fd7f
.LCPI1_1649:
	.quad	-550359826441                   # 0xffffff7fdbff7ff7
	.quad	-633318769576977                # 0xfffdbffffbb5b3ef
.LCPI1_1650:
	.quad	-7107243333976066               # 0xffe6bffff5befffe
	.quad	8988755703097195963             # 0x7cbe79afffdffdbb
.LCPI1_1651:
	.quad	-10150829055017121              # 0xffdbefdfefffff5f
	.quad	-80283980276803                 # 0xffffb6fb6ddfdbbd
.LCPI1_1652:
	.quad	-1819509230475937829            # 0xe6bfcdfebbeff7db
	.quad	-297307944188387363             # 0xfbdfbffffdbfdfdd
.LCPI1_1653:
	.quad	-2594078402160689291            # 0xdbfffb6fefb2ff75
	.quad	-144396667364458509             # 0xfdfefffefefdbff3
.LCPI1_1654:
	.quad	-2343580498850291969            # 0xdf79edf3ff7edeff
	.quad	-2305843697520476289            # 0xdfffff5fbdb7ff7f
.LCPI1_1655:
	.quad	-1163330749206593               # 0xfffbddf4f3efefbf
	.quad	-2310982268631933057            # 0xdfedbddeebf79f7f
.LCPI1_1656:
	.quad	-1152923308661440521            # 0xeffffe5bf5f77ff7
	.quad	-92324067239037473              # 0xfeb7ffbfffff75df
.LCPI1_1657:
	.quad	-4649421291856660483            # 0xbf79eff7ffbef7fd
	.quad	-326550557550449666             # 0xfb77dbff7fffebfe
.LCPI1_1658:
	.quad	-4836866081467406341            # 0xbcdfffecfbffe7fb
	.quad	-9008608809468209               # 0xffdffeb7cffdbecf
.LCPI1_1659:
	.quad	-2342716789510897674            # 0xdf7cff7dffdbfff6
	.quad	-595601052330492481             # 0xf7bbffff9ffdfdbf
.LCPI1_1660:
	.quad	-361485482502259969             # 0xfafbbede6ffdfaff
	.quad	9222526855991459327             # 0x7ffcff4ffedefdff
.LCPI1_1661:
	.quad	-576496212652343554             # 0xf7ffdfbfbe7fbefe
	.quad	-73184593524555795              # 0xfefbfefffbefffed
.LCPI1_1662:
	.quad	-2359925858195472385            # 0xdf3fdbef75ffffff
	.quad	-1155175503588493382            # 0xeff7fdfff75ff7ba
.LCPI1_1663:
	.quad	-590059786993674247             # 0xf7cfafbfffffd7f9
	.quad	-1441720328320451073            # 0xebfdfafffcfffdff
.LCPI1_1664:
	.quad	-72093363607699521              # 0xfeffdf77bf7fffbf
	.quad	-577586652814836865             # 0xf7fbffffdbf6fb7f
.LCPI1_1665:
	.quad	-144123993165692929             # 0xfdfff7fde7bf7fff
	.quad	-801647408051388745             # 0xf4dff9edfffbfeb7
.LCPI1_1666:
	.quad	-621514340771701813             # 0xf75fefffff7ddbcb
	.quad	-1441257434982973521            # 0xebff9fffbdf2ffaf
.LCPI1_1667:
	.quad	-18155244982796293              # 0xffbf7fe69ffd7ffb
	.quad	-122723364728012929             # 0xfe4bffbfffbeff7f
.LCPI1_1668:
	.quad	-436857979281605249             # 0xf9eff7fb7f9ffd7f
	.quad	-5764611926056554529            # 0xaffffbfed76b2fdf
.LCPI1_1669:
	.quad	-1689159634781203               # 0xfff9ffb7dffffbed
	.quad	-2256904382382081               # 0xfff7fb5b7ffeffff
.LCPI1_1670:
	.quad	-12387166718263397              # 0xffd3fdeffffbff9b
	.quad	-2882963475016056977            # 0xd7fda7fe7b3dff6f
.LCPI1_1671:
	.quad	-472877961981198490             # 0xf96fffffbdffff66
	.quad	-72110414619476298              # 0xfeffcff5bffffeb6
.LCPI1_1672:
	.quad	-2377901707091771569            # 0xdefffefefdffff4f
	.quad	-2450037431248879681            # 0xddffb7efe7ffffbf
.LCPI1_1673:
	.quad	8574690962792375735             # 0x76ff6bfffffde5b7
	.quad	-4616198431864521765            # 0xbfeff7fbdffffbdb
.LCPI1_1674:
	.quad	-563020856098842                # 0xfffdffef7ddeffe6
	.quad	-144133330034509825             # 0xfdffef7ffeffb7ff
.LCPI1_1675:
	.quad	-4616192953168175105            # 0xbfeffcf77bbfdfff
	.quad	-923727477416001                # 0xfffcb7dfefd6dfbf
.LCPI1_1676:
	.quad	-721987988338639105             # 0xf5fafbbff6f9feff
	.quad	-2350897751149013009            # 0xdf5feef36f7f97ef
.LCPI1_1677:
	.quad	-202767675934410305             # 0xfd2f9fdf7fff79bf
	.quad	8069183619974395899             # 0x6ffb7fbffff977fb
.LCPI1_1678:
	.quad	-662110928111689731             # 0xf6cfb59e6fff9ffd
	.quad	-22518008203707906              # 0xffaffffda7f7f9fe
.LCPI1_1679:
	.quad	-72057603165782114              # 0xfefffffddfefff9e
	.quad	-4647856704556367873            # 0xbf7f7ef3ddffffff
.LCPI1_1680:
	.quad	-288547173207901193             # 0xfbfedfdfeffffbf7
	.quad	-4764826547792250881            # 0xbddfef7ffa7df7ff
.LCPI1_1681:
	.quad	-302304159615418417             # 0xfbcdfff7efffffcf
	.quad	8067600029008681469             # 0x6ff5df7b7efe59fd
.LCPI1_1682:
	.quad	-19140368765456449              # 0xffbbffef9edd6fbf
	.quad	-2315985076339345447            # 0xdfdbf7d7fbaff7d9
.LCPI1_1683:
	.quad	-162701349830787075             # 0xfdbdf7fbfedbfffd
	.quad	-9289228416848389               # 0xffdeff7ef7f9edfb
.LCPI1_1684:
	.quad	-576488259421996307             # 0xf7ffe6fb7ff7faed
	.quad	-2468043514303287297            # 0xddbfbf7fffbeefff
.LCPI1_1685:
	.quad	-216208241509531654             # 0xfcffdfbff74ffffa
	.quad	-7566073765281464449            # 0x96ffe7ff4bfeff7f
.LCPI1_1686:
	.quad	-1188950440407499409            # 0xef7fffdfaff77d6f
	.quad	-1153203057499342858            # 0xeffeffeddbdb77f6
.LCPI1_1687:
	.quad	-2378463725004457137            # 0xdefdffd7fff4fb4f
	.quad	-290562449982133249             # 0xfbf7b6fdbfbf6bff
.LCPI1_1688:
	.quad	8493648086634053363             # 0x75df7feefaffbef3
	.quad	-5189273087530508417            # 0xb7fbff9eef3fdf7f
.LCPI1_1689:
	.quad	-20557637624006145              # 0xffb6f6effffff9ff
	.quad	-4612830064571109441            # 0xbffbef7effff2fbf
.LCPI1_1690:
	.quad	-9088569557786657               # 0xffdfb5fe7ffddfdf
	.quad	8934508185087889391             # 0x7bfdbfdb76fbcfef
.LCPI1_1691:
	.quad	-749022780243181569             # 0xf59aefbff6edffff
	.quad	-648607716289822753             # 0xf6ffaeb7eff7bfdf
.LCPI1_1692:
	.quad	-5136921550423105               # 0xffedbfff3fbf7bbf
	.quad	4465002336828129215             # 0x3df6dff7ffedffbf
.LCPI1_1693:
	.quad	-2666273920747307409            # 0xdaff7dfedff7fe6f
	.quad	-321083299337217                # 0xfffedbf9f7ffebff
.LCPI1_1694:
	.quad	-594527928455268385             # 0xf7bfcfffbf5ff7df
	.quad	-576531145207382017             # 0xf7ffbffa5ff6ffff
.LCPI1_1695:
	.quad	7782180495290199933             # 0x6bffdbedbfbeef7d
	.quad	9212105821685546487             # 0x7fd7f96fdedffdf7
.LCPI1_1696:
	.quad	-17884252758021                 # 0xffffefbbff779ffb
	.quad	-2306414755294019652            # 0xdffdf7fffdfaffbc
.LCPI1_1697:
	.quad	-5332402765148766242            # 0xb5ff7feff7ff3fde
	.quad	-2643683354608732325            # 0xdb4fbffeedeef75b
.LCPI1_1698:
	.quad	-144467031801266755             # 0xfdfebfffffbafdbd
	.quad	-747615723572330497             # 0xf59fef75dff97fff
.LCPI1_1699:
	.quad	-297248847824948225             # 0xfbdff5bf6f7ff3ff
	.quad	-2360484562408080513            # 0xdf3ddfcbffdf7b7f
.LCPI1_1700:
	.quad	7842732809314627583             # 0x6cd6fbefff7fefff
	.quad	-4611827054752170001            # 0xbfff7fba6bf5ffef
.LCPI1_1701:
	.quad	9218868428334946815             # 0x7feffffdedf7d9ff
	.quad	-27023874181825289              # 0xff9ffdedfaeffcf7
.LCPI1_1702:
	.quad	-2954431724840435845            # 0xd6ffbfffdfbdbf7b
	.quad	-1152926041333858306            # 0xeffffbdfb5ff7ffe
.LCPI1_1703:
	.quad	-576484950837051401             # 0xf7ffe9fdd6ffbff7
	.quad	-4656730952536424453            # 0xbf5ff7deff7ffffb
.LCPI1_1704:
	.quad	9187308029641482236             # 0x7f7fdff9fcdfdffc
	.quad	-1747401607520191041            # 0xe7bffb7effcffdbf
.LCPI1_1705:
	.quad	-292877054024614919             # 0xfbef7ddefffffbf9
	.quad	-165014705113403401             # 0xfdb5bffffeffeff7
.LCPI1_1706:
	.quad	-1730548288992576010            # 0xe7fbdb7fffeffdf6
	.quad	-2594637469190800641            # 0xdbfdfef7fff6baff
.LCPI1_1707:
	.quad	-164381455123255425             # 0xfdb7ffefffb76f7f
	.quad	-5765064919871656033            # 0xaffe5ffffffbef9f
.LCPI1_1708:
	.quad	-4611688217518426245            # 0xbffffdfffbf5b77b
	.quad	-1189240573924476433            # 0xef7ef7ffb6bff9ef
.LCPI1_1709:
	.quad	-1163072471386030113            # 0xefdbefbfdeffffdf
	.quad	-72075225415681025              # 0xfeffeff6dffdfbff
.LCPI1_1710:
	.quad	8791026335188156350             # 0x79ffffdffffe7fbe
	.quad	9060942824224059391             # 0x7dbeef7ddfffefff
.LCPI1_1711:
	.quad	-580964369380163729             # 0xf7effffbefefbf6f
	.quad	5475813638580731374             # 0x4bfdff7dffd7fdee
.LCPI1_1712:
	.quad	-20409204629047301              # 0xffb77defbfeff7fb
	.quad	-76561472875921573              # 0xfeefffbefdbfff5b
.LCPI1_1713:
	.quad	-146441774030651409             # 0xfdf7bbfb7e9fffef
	.quad	-422530444709890                # 0xfffe7fb5f6efaffe
.LCPI1_1714:
	.quad	-2595271853040732161            # 0xdbfbbdffffeff7ff
	.quad	-1193458299316502659            # 0xef6ffbfffeff7f7d
.LCPI1_1715:
	.quad	-4683748046014513161            # 0xbefffbf7bbdffff7
	.quad	-288379926922002695             # 0xfbff77fbff75fef9
.LCPI1_1716:
	.quad	-162138933524731017             # 0xfdbff77fbeff6b77
	.quad	-586631853354533193             # 0xf7dbdd6ffedfbeb7
.LCPI1_1717:
	.quad	-36171871578751107              # 0xff7f7ddfdbafff7d
	.quad	-38289461783892033              # 0xff77f7eff7baefbf
.LCPI1_1718:
	.quad	-801781479750518785             # 0xf4df7ffdfffbb7ff
	.quad	-612507433574744225             # 0xf77fefbbff7dbf5f
.LCPI1_1719:
	.quad	-3494793948675711569            # 0xcf7fff6b7dffddaf
	.quad	-1732918837755512833            # 0xe7f36f7f9afff7ff
.LCPI1_1720:
	.quad	-14707484144959495              # 0xffcbbf9efffffff9
	.quad	8928386243796917687             # 0x7be7fffbeeffddb7
.LCPI1_1721:
	.quad	8043428349294378751             # 0x6f9fff77bfff7eff
	.quad	-648592030833862657             # 0xf6ffbcfbfdff97ff
.LCPI1_1722:
	.quad	-7354650458658369               # 0xffe5defbfff6e9bf
	.quad	-2286988490342465               # 0xfff7dffeff6d7fbf
.LCPI1_1723:
	.quad	-293297201147281797             # 0xfbedffbfdffffe7b
	.quad	-144436383082094601             # 0xfdfedbdff5bfdff7
.LCPI1_1724:
	.quad	-74590877426680393              # 0xfef6fffdff7f7db7
	.quad	-109777492016891921             # 0xfe79fdf3dffff7ef
.LCPI1_1725:
	.quad	-144397771456152577             # 0xfdfefefdedff7bff
	.quad	-4683748285417134593            # 0xbefffbbffe5de5ff
.LCPI1_1726:
	.quad	-4904579445409062929            # 0xbbef6efadfb5dfef
	.quad	6917449313012383741             # 0x5fffb77ffddf7ffd
.LCPI1_1727:
	.quad	-1730526333118758913            # 0xe7fbef77ffff3fff
	.quad	-2382407913731916807            # 0xdeeffc9fffedfbf9
.LCPI1_1728:
	.quad	-2324139578484588561            # 0xdfbeff5dffffffef
	.quad	9205317192503766750             # 0x7fbfdb36f7fbaede
.LCPI1_1729:
	.quad	-333902989658425345             # 0xfb5dbcfffff7f7ff
	.quad	-1315052208068329491            # 0xedbffefbf4fe7fed
.LCPI1_1730:
	.quad	9141001015091095263             # 0x7edb5bfdfbfd66df
	.quad	-4616772634095411473            # 0xbfededbfffff9eef
.LCPI1_1731:
	.quad	-18296012003648641              # 0xffbeffdfbfb75b7f
	.quad	-18034232680024129              # 0xffbfedf5ff4f77bf
.LCPI1_1732:
	.quad	-2419561101044219937            # 0xde6bfdff7be7ffdf
	.quad	-2601215951412134018            # 0xdbe69fdfbfffff7e
.LCPI1_1733:
	.quad	-4614362779502379077            # 0xbff67d7ffef9ffbb
	.quad	-577183406597603489             # 0xf7fd6ebfef7fff5f
.LCPI1_1734:
	.quad	8034351366468000183             # 0x6f7fbffffeffd9b7
	.quad	-216172783925723654             # 0xfcffffff93fffdfa
.LCPI1_1735:
	.quad	-2424062534140108805            # 0xde5bfff7eb3edffb
	.quad	9218516041599020973             # 0x7feebf7f7fbfefad
.LCPI1_1736:
	.quad	-1729523002989625349            # 0xe7ff7ffdffefbffb
	.quad	-1207558510543139               # 0xfffbb5bb5feefedd
.LCPI1_1737:
	.quad	-6861021312978962               # 0xffe79feffdd7efee
	.quad	9150184144853893055             # 0x7efbfbffff6d7fbf
.LCPI1_1738:
	.quad	-2378613361668522115            # 0xdefd77bfffbfff7d
	.quad	-1297036692716265489            # 0xedfffffffdffdfef
.LCPI1_1739:
	.quad	9221964652844152759             # 0x7ffafffddffbf7b7
	.quad	-2305861707387389061            # 0xdfffeefe7dffbb7b
.LCPI1_1740:
	.quad	-38351171773005835              # 0xff77bfcffdbffff5
	.quad	-657525554798413829             # 0xf6dffffddb7fb7fb
.LCPI1_1741:
	.quad	-1143492394877313               # 0xfffbefffedfffe7f
	.quad	-342836522726227978             # 0xfb3dffffbedf7ff6
.LCPI1_1742:
	.quad	-4756931543312632385            # 0xbdfbfbf6f3fff5bf
	.quad	-4652219521128472833            # 0xbf6ffefe79ffdeff
.LCPI1_1743:
	.quad	-4789489830985809               # 0xffeefbfbfff7ffaf
	.quad	-5764607527463420197            # 0xaffffffef7fffedb
.LCPI1_1744:
	.quad	-586030901587673121             # 0xf7ddfffffb76ffdf
	.quad	-1155177774414102657            # 0xeff7fbef3f9eff7f
.LCPI1_1745:
	.quad	-4613973277493301257            # 0xbff7dfbfffddeff7
	.quad	-369383284993507459             # 0xfadfafdbfffebf7d
.LCPI1_1746:
	.quad	-1153528984781238402            # 0xeffdd77fffff4f7e
	.quad	-1164236037620236289            # 0xefd7cd7dfeefffff
.LCPI1_1747:
	.quad	-2305846307816276993            # 0xdffffcfffbf6fbff
	.quad	9223358833051560958             # 0x7ffff3fdbfffebfe
.LCPI1_1748:
	.quad	-144403878622920773             # 0xfdfef96ffe7dffbb
	.quad	-612507175868318757             # 0xf77feff7fffdbbdb
.LCPI1_1749:
	.quad	-1189020747947876419            # 0xef7fbfedefff5fbd
	.quad	-1224979687610040417            # 0xeeffff76deef3f9f
.LCPI1_1750:
	.quad	-2639250123766366209            # 0xdb5f7ffeeb7fffff
	.quad	-8590196803                     # 0xfffffffdfffbffbd
.LCPI1_1751:
	.quad	-1873642580537770505            # 0xe5ff7bfffefffdf7
	.quad	-1205067168358401               # 0xfffbb7ff6f7fdfff
.LCPI1_1752:
	.quad	-187502055421186050             # 0xfd65dbdfbff6effe
	.quad	-156781630749442081             # 0xfdd2ffefffdf7fdf
.LCPI1_1753:
	.quad	-4625269402860789761            # 0xbfcfbdfbdbffdfff
	.quad	-342590368786679314             # 0xfb3edfdfecfff9ee
.LCPI1_1754:
	.quad	-577588928611125769             # 0xf7fbfdedfbef75f7
	.quad	-4328603699                     # 0xfffffffefdfebfcd
.LCPI1_1755:
	.quad	8935066825058573239             # 0x7bffbbeff7fe5bb7
	.quad	-596867962993004873             # 0xf7b77fbffffdaeb7
.LCPI1_1756:
	.quad	-8796630958213                  # 0xfffff7ffdfefbf7b
	.quad	-18613658152633362              # 0xffbddef9fdd77bee
.LCPI1_1757:
	.quad	-1224997245083077121            # 0xeeffef7ef3fdb5ff
	.quad	-7242917401444026625            # 0x9b7bfcff7d6ef6ff
.LCPI1_1758:
	.quad	8916554895251210231             # 0x7bbdf76f6fb7fff7
	.quad	-4613093428904854017            # 0xbffafff7b66ffdff
.LCPI1_1759:
	.quad	-288251267142657027             # 0xfbffecffefe7dbfd
	.quad	-3657486465854112259            # 0xcd3dff6ffff77dfd
.LCPI1_1760:
	.quad	9149904546785355710             # 0x7efafdb4ffdf67be
	.quad	-4692891566463787013            # 0xbedf7ffbfb7fdffb
.LCPI1_1761:
	.quad	-58555591249138689              # 0xff2ff7fffffb6bff
	.quad	-93450516918435850              # 0xfeb3ff3ffefffff6
.LCPI1_1762:
	.quad	-108088607796953235             # 0xfe7ffdfbdffeff6d
	.quad	-2306164077348524033            # 0xdffedbfd7fdfefff
.LCPI1_1763:
	.quad	-4765237833835483393            # 0xbdde796ffbfbeeff
	.quad	-5224185498252214305            # 0xb77ff6f7dfedffdf
.LCPI1_1764:
	.quad	8069534618391870975             # 0x6ffcbefb2ff6fdff
	.quad	-738590412457902593             # 0xf5bfffeedeeffdff
.LCPI1_1765:
	.quad	-292874857148973057             # 0xfbef7fde7ffdffff
	.quad	-4503685665128595               # 0xffefffebf7bfff6d
.LCPI1_1766:
	.quad	-1161084296761377               # 0xfffbdffffeefefdf
	.quad	-297800543447286017             # 0xfbddfffbc9e7feff
.LCPI1_1767:
	.quad	-2305915029372802051            # 0xdfffbe7f7fffebfd
	.quad	-1153066950453364737            # 0xefff7bb7bffbf7ff
.LCPI1_1768:
	.quad	-5188234732197904405            # 0xb7ffafffdfffffeb
	.quad	9079255748193255423             # 0x7dfffeffbffb7fff
.LCPI1_1769:
	.quad	8637604192425080511             # 0x77deef3fbfebf6bf
	.quad	-2882867830381872129            # 0xd7fdfefb7baffbff
.LCPI1_1770:
	.quad	-4535489658884                  # 0xfffffbdfffbffffc
	.quad	9150892217315883007             # 0x7efe7ffcf6fff7ff
.LCPI1_1771:
	.quad	-4616190064765575221            # 0xbfefff97fdf5dfcb
	.quad	-288274427484569601             # 0xfbffd7ef7ff3ffff
.LCPI1_1772:
	.quad	-1155331703890383362            # 0xeff76fefbfddedfe
	.quad	-4611756389331634565            # 0xbfffbfff7f3ff67b
.LCPI1_1773:
	.quad	-20279555806199945              # 0xffb7f3d9f7f7ff77
	.quad	-153144927856922629             # 0xfddfeb7fdfef6ffb
.LCPI1_1774:
	.quad	-82192892323430673              # 0xfedbfdfff9fffeef
	.quad	-18578585463816897              # 0xffbdfedffcfffd3f
.LCPI1_1775:
	.quad	-1164180516761504001            # 0xefd7fffcf3fff6ff
	.quad	-2319353952514605185            # 0xdfcfffde5ff7ff7f
.LCPI1_1776:
	.quad	-1153520190164599321            # 0xeffddf7fa7ff7de7
	.quad	8628894686414634935             # 0x77bffdffdbffffb7
.LCPI1_1777:
	.quad	-2307180037398396947            # 0xdffb3ffaddfeffed
	.quad	-2346661279158244417            # 0xdf6efbffef9bebbf
.LCPI1_1778:
	.quad	-83334198336946761              # 0xfed7effcf67bfdb7
	.quad	-9148074228196357               # 0xffdf7fdffd3fdbfb
.LCPI1_1779:
	.quad	-20267298103526412              # 0xffb7feffeffb7bf4
	.quad	-4683778865692150274            # 0xbeffdfeff7eff5fe
.LCPI1_1780:
	.quad	-4648849823168004357            # 0xbf7bf7b76beefefb
	.quad	-2264994093735937               # 0xfff7f3fff79fdfff
.LCPI1_1781:
	.quad	-1161084296790018               # 0xfffbdffffeef7ffe
	.quad	-585487743044370449             # 0xf7dfedffef7ebfef
.LCPI1_1782:
	.quad	-2364426243039821907            # 0xdf2fdedbf5ffffad
	.quad	-1164180885936177189            # 0xefd7ffa6ff797fdb
.LCPI1_1783:
	.quad	-301749978106234881             # 0xfbcff7fe5ffef7ff
	.quad	8935106450539675647             # 0x7bffdff9feb7ffff
.LCPI1_1784:
	.quad	9223070769524735487             # 0x7ffeedffbbcf7dff
	.quad	-4685010256336535603            # 0xbefb7ffe7dffbfcd
.LCPI1_1785:
	.quad	-2596360372940443713            # 0xdbf7dfff35fbefbf
	.quad	-4755819082912369153            # 0xbdffefbdd2fbf5ff
.LCPI1_1786:
	.quad	-572983001874433                # 0xfffdf6dfffb5ffff
	.quad	-36319704853251097              # 0xff7ef76bbddffbe7
.LCPI1_1787:
	.quad	-19162324082376737              # 0xffbbebf7bfffbfdf
	.quad	-6917537824010993793            # 0x9ffff7ffef7eff7f
.LCPI1_1788:
	.quad	-5035985473539                  # 0xfffffb6b77dfeffd
	.quad	9214218867767771095             # 0x7fdf7b3dbfffffd7
.LCPI1_1789:
	.quad	-2594155041283637249            # 0xdbffb5bbffffffff
	.quad	-162130686097588241             # 0xfdbffefffff67fef
.LCPI1_1790:
	.quad	-4758334859259543557            # 0xbdf6ffa7ff79fffb
	.quad	-2310487621748924549            # 0xdfef7fbfdfb7df7b
.LCPI1_1791:
	.quad	9187061756129968127             # 0x7f7efffdf7b3ffff
	.quad	9140861652041465567             # 0x7edadd3dfeebfedf
.LCPI1_1792:
	.quad	-580967650466221189             # 0xf7effcfffff7b37b
	.quad	-1153282213144526849            # 0xeffeb7efffbe7fff
.LCPI1_1793:
	.quad	-666551230474240009             # 0xf6bfef2ffafbbff7
	.quad	-288239618955034629             # 0xfbfff797fdfdbffb
.LCPI1_1794:
	.quad	9184484440884117500             # 0x7f75d7effffffffc
	.quad	-145241088119031810             # 0xfdfbfffff7dfb7fe
.LCPI1_1795:
	.quad	-9007237977612417               # 0xffdffff6fbefdf7f
	.quad	-18014398777987601              # 0xffbfffffeffeedef
.LCPI1_1796:
	.quad	-4755942503034683913            # 0xbdff7f7dd66f7df7
	.quad	-9016030009508897               # 0xffdff7f7edffbbdf
.LCPI1_1797:
	.quad	-1302142825772613714            # 0xededdbffbeffffae
	.quad	9079256847696658430             # 0x7dffffffbf7dfffe
.LCPI1_1798:
	.quad	-72710845682950401              # 0xfefdaddeffbfdeff
	.quad	-1302103242281062402            # 0xededfffffef3effe
.LCPI1_1799:
	.quad	-659812564144767041             # 0xf6d7dff7ffcfbfbf
	.quad	-6917549921152273425            # 0x9fffecff59aff3ef
.LCPI1_1800:
	.quad	9079212866161868797             # 0x7dffd7ff7fbbfffd
	.quad	-4827880859644200969            # 0xbcffebeff6fff7f7
.LCPI1_1801:
	.quad	-4613516722475893925            # 0xbff97efbff7ffb5b
	.quad	-1152922612708941828            # 0xeffffefdfff7dffc
.LCPI1_1802:
	.quad	-6359087106791473218            # 0xa7bffbf7dfed7fbe
	.quad	-2319353808095806497            # 0xdfcffffffffffbdf
.LCPI1_1803:
	.quad	-18366252968051201              # 0xffbebffd7ffbfdff
	.quad	7926317750912249339             # 0x6dffefffbfff6dfb
.LCPI1_1804:
	.quad	-613615466442737921             # 0xf77bfffbfdfeb6ff
	.quad	-2308657761262534721            # 0xdff5ffff77ff7fbf
.LCPI1_1805:
	.quad	-10139769247109122              # 0xffdbf9eeffebeffe
	.quad	-4697327258287890691            # 0xbecfbdbefffd9efd
.LCPI1_1806:
	.quad	8065941287909195647             # 0x6feffaddbcfbff7f
	.quad	-1161928703928697417            # 0xefdffffffbfffdb7
.LCPI1_1807:
	.quad	-5084144015575171               # 0xffedefff79f6f77d
	.quad	8935141660300402679             # 0x7bffffffe7ffdff7
.LCPI1_1808:
	.quad	9058985977464225791             # 0x7db7fbbffbffffff
	.quad	-45063523289547141              # 0xff5fe6f6ddffbe7b
.LCPI1_1809:
	.quad	-2306801852073123843            # 0xdffc97effff7dffd
	.quad	-4611721203892230209            # 0xbfffdfffbedde7bf
.LCPI1_1810:
	.quad	-4612952932856439073            # 0xbffb7fbf7f7ededf
	.quad	-2598590731037966867            # 0xdbeff37f7fdbfded
.LCPI1_1811:
	.quad	-1298198051864838914            # 0xedfbdfbffe7dfcfe
	.quad	-576479461189420067             # 0xf7ffeefbff7efbdd
.LCPI1_1812:
	.quad	-2323861891675324628            # 0xdfbffbebff9fff2c
	.quad	4467430058301974518             # 0x3dff7ff7f3fde7f6
.LCPI1_1813:
	.quad	-706026118725633                # 0xfffd7ddf7bfdbfff
	.quad	-22553869724954641              # 0xffafdf5ffebbcfef
.LCPI1_1814:
	.quad	9123166944600520695             # 0x7e9bffffdf7ff7f7
	.quad	-36046526682955799              # 0xff7fefdffdacffe9
.LCPI1_1815:
	.quad	-2776759450342564930            # 0xd976f7fde79f5bbe
	.quad	9205214697326640895             # 0x7fbf7dfef35bfeff
.LCPI1_1816:
	.quad	-5197153970790991281            # 0xb7dfffffcffdfa4f
	.quad	9220486918040714686             # 0x7ff5bfffedf3fdbe
.LCPI1_1817:
	.quad	-1297036693890666529            # 0xedffffffb7ffefdf
	.quad	-2387048677471420549            # 0xdedf7fdffdbfff7b
.LCPI1_1818:
	.quad	-288512538591887489             # 0xfbfeff5feffbff7f
	.quad	-4630967054349910285            # 0xbfbb7ffffeefbef3
.LCPI1_1819:
	.quad	-2387488362094141489            # 0xdeddeffbefffdfcf
	.quad	-2310381861935289409            # 0xdfefdfefffd76bbf
.LCPI1_1820:
	.quad	9214043737255047155             # 0x7fdedbf5ffffeff3
	.quad	-580964373472878849             # 0xf7effffafbfddeff
.LCPI1_1821:
	.quad	-1301544690390139409            # 0xedeffbfffdfffdef
	.quad	-72110646012936778              # 0xfeffcfbfdfdffdb6
.LCPI1_1822:
	.quad	-72638138867138561              # 0xfefdefff5fadbfff
	.quad	-2604743048560643               # 0xfff6beffffdbfffd
.LCPI1_1823:
	.quad	-576461100799754313             # 0xf7ffffaedbffffb7
	.quad	-4648277920060555313            # 0xbf7dffdbfd7fbfcf
.LCPI1_1824:
	.quad	-288582220947128401             # 0xfbfebfffbff3ffaf
	.quad	-596744577174474758             # 0xf7b7eff7ffdfeffa
.LCPI1_1825:
	.quad	-1205236585860481               # 0xfffbb7d7fd6df27f
	.quad	-148913534420459531             # 0xfdeef3edee9edff5
.LCPI1_1826:
	.quad	-1298162628023324930            # 0xedfbfff7bffb6efe
	.quad	-2379035302272983041            # 0xdefbf7ff4be79fff
.LCPI1_1827:
	.quad	-38879831779246097              # 0xff75deffbddeffef
	.quad	-2427997761311073               # 0xfff75fbfb7ebee9f
.LCPI1_1828:
	.quad	-703691812258177                # 0xfffd7ffefb7fbe7f
	.quad	-1189522064852386314            # 0xef7df7fbfffbfdf6
.LCPI1_1829:
	.quad	-649926030470955617             # 0xf6faffb7ff7fbd9f
	.quad	-37315363671179429              # 0xff7b6ddfdbb6ff5b
.LCPI1_1830:
	.quad	-2454467303069454340            # 0xddeffafdffbbeffc
	.quad	-596744542829566469             # 0xf7b7effffefda5fb
.LCPI1_1831:
	.quad	-9007474137366785               # 0xffdfffbfffb7feff
	.quad	-1459738094050804746            # 0xebbdf7effefefbf6
.LCPI1_1832:
	.quad	-1875751512676925957            # 0xe5f7fdeff7fd7dfb
	.quad	-4647715917172704259            # 0xbf7ffeff7bfdfbfd
.LCPI1_1833:
	.quad	6899509681060048895             # 0x5fbffb7feff3efff
	.quad	-5908762294200832257            # 0xadffdbffd7efeeff
.LCPI1_1834:
	.quad	-864709822334967825             # 0xf3ffeeff7deedfef
	.quad	-4539900724544003               # 0xffefdefbfdff7dfd
.LCPI1_1835:
	.quad	-144115305115813893             # 0xfdffffe4bfdff7fb
	.quad	-586033261864683797             # 0xf7ddfdda6ffdf6eb
.LCPI1_1836:
	.quad	8935132726093107191             # 0x7bfff7dfbfbf4ff7
	.quad	-1226122694968230241            # 0xeefbefe7bb5fbe9f
.LCPI1_1837:
	.quad	-7494624254021863459            # 0x97fdbef2fdfff7dd
	.quad	6917458519176183735             # 0x5fffbfdf77feffb7
.LCPI1_1838:
	.quad	-588003975203258377             # 0xf7d6fd7ffb7dfff7
	.quad	-150633105736833                # 0xffff76ffff3dbb7f
.LCPI1_1839:
	.quad	-1153765930661118978            # 0xeffcffffbcfefbfe
	.quad	-234226831779172901             # 0xfcbfdbeffeefeddb
.LCPI1_1840:
	.quad	-45247102774673671              # 0xff5f3fffeffffef9
	.quad	-162416011782398081             # 0xfdbefb7f6fdfdf7f
.LCPI1_1841:
	.quad	-6350374554775585282            # 0xa7deeffcf7ebfdfe
	.quad	-2343015315506989315            # 0xdf7beffbffe7f6fd
.LCPI1_1842:
	.quad	-3603517420792774673            # 0xcdfdbbff7fb6ffef
	.quad	7926297959702984631             # 0x6dffddffbffff7b7
.LCPI1_1843:
	.quad	-4612398659274276867            # 0xbffd77db5f77fffd
	.quad	8916844669048979454             # 0x7bbefefba7fffffe
.LCPI1_1844:
	.quad	-1161737130754145               # 0xfffbdf67feffbf9f
	.quad	-4719983653155783697            # 0xbe7f3fdfffffbbef
.LCPI1_1845:
	.quad	-1333135869317481473            # 0xed7fbffd77fffbff
	.quad	9151156112596926195             # 0x7eff6fffdf7bfef3
.LCPI1_1846:
	.quad	-13528803418579077              # 0xffcfef9ffdffdf7b
